(dp0
S'sum[3]'
p1
(i__main__
adj_list
p2
(dp3
S'name'
p4
g1
sS'weight'
p5
NsS'T0'
p6
NsS'T1'
p7
NsS'toggle'
p8
NsS'edge'
p9
(lp10
sbsS'b[1]'
p11
(i__main__
adj_list
p12
(dp13
g4
g11
sg5
Nsg6
Nsg7
Nsg8
Nsg9
(lp14
S'n4'
p15
aS'n6'
p16
asbsS'sum[1]'
p17
(i__main__
adj_list
p18
(dp19
g4
g17
sg5
Nsg6
Nsg7
Nsg8
Nsg9
(lp20
sbsS'sum[0]'
p21
(i__main__
adj_list
p22
(dp23
g4
g21
sg5
Nsg6
Nsg7
Nsg8
Nsg9
(lp24
sbsS'b[0]'
p25
(i__main__
adj_list
p26
(dp27
g4
g25
sg5
Nsg6
Nsg7
Nsg8
Nsg9
(lp28
S'n5'
p29
ag21
ag15
asbsS'sum[2]'
p30
(i__main__
adj_list
p31
(dp32
g4
g30
sg5
Nsg6
Nsg7
Nsg8
Nsg9
(lp33
sbsS'carry'
p34
(i__main__
adj_list
p35
(dp36
g4
g34
sg5
Nsg6
Nsg7
Nsg8
Nsg9
(lp37
sbsS'a[0]'
p38
(i__main__
adj_list
p39
(dp40
g4
g38
sg5
Nsg6
Nsg7
Nsg8
Nsg9
(lp41
g29
ag21
aS'n7'
p42
asbsS'a[1]'
p43
(i__main__
adj_list
p44
(dp45
g4
g43
sg5
Nsg6
Nsg7
Nsg8
Nsg9
(lp46
g15
ag16
asbsS'b[3]'
p47
(i__main__
adj_list
p48
(dp49
g4
g47
sg5
Nsg6
Nsg7
Nsg8
Nsg9
(lp50
g34
aS'n1'
p51
asbsS'b[2]'
p52
(i__main__
adj_list
p53
(dp54
g4
g52
sg5
Nsg6
Nsg7
Nsg8
Nsg9
(lp55
S'n2'
p56
aS'n3'
p57
asbsS'a[2]'
p58
(i__main__
adj_list
p59
(dp60
g4
g58
sg5
Nsg6
Nsg7
Nsg8
Nsg9
(lp61
g56
ag57
asbsS'a[3]'
p62
(i__main__
adj_list
p63
(dp64
g4
g62
sg5
Nsg6
Nsg7
Nsg8
Nsg9
(lp65
g34
ag51
asbsS'n1'
p66
(i__main__
adj_list
p67
(dp68
g4
g66
sg5
Nsg6
Nsg7
Nsg8
Nsg9
(lp69
g1
ag34
asbsS'n2'
p70
(i__main__
adj_list
p71
(dp72
g4
g70
sg5
Nsg6
Nsg7
Nsg8
Nsg9
(lp73
g1
ag34
asbsS'n3'
p74
(i__main__
adj_list
p75
(dp76
g4
g74
sg5
Nsg6
Nsg7
Nsg8
Nsg9
(lp77
g30
ag56
asbsS'n4'
p78
(i__main__
adj_list
p79
(dp80
g4
g78
sg5
Nsg6
Nsg7
Nsg8
Nsg9
(lp81
g30
ag56
asbsS'n5'
p82
(i__main__
adj_list
p83
(dp84
g4
g82
sg5
Nsg6
Nsg7
Nsg8
Nsg9
(lp85
g17
asbsS'n6'
p86
(i__main__
adj_list
p87
(dp88
g4
g86
sg5
Nsg6
Nsg7
Nsg8
Nsg9
(lp89
g17
ag42
asbsS'n7'
p90
(i__main__
adj_list
p91
(dp92
g4
g90
sg5
Nsg6
Nsg7
Nsg8
Nsg9
(lp93
g15
asbs.