(dp0
S'n1053'
p1
(i__main__
adj_list
p2
(dp3
S'name'
p4
g1
sS'weight'
p5
NsS'T0'
p6
NsS'T1'
p7
NsS'toggle'
p8
NsS'edge'
p9
(lp10
S'n1006'
p11
asbsS'n1040'
p12
(i__main__
adj_list
p13
(dp14
g4
g12
sg5
Nsg6
Nsg7
Nsg8
Nsg9
(lp15
S'n979'
p16
aS'n990'
p17
asbsS'n557'
p18
(i__main__
adj_list
p19
(dp20
g4
g18
sg5
Nsg6
Nsg7
Nsg8
Nsg9
(lp21
S'n462'
p22
asbsS'n1123'
p23
(i__main__
adj_list
p24
(dp25
g4
g23
sg5
Nsg6
Nsg7
Nsg8
Nsg9
(lp26
S'n1076'
p27
aS'n1132'
p28
asbsS'n563'
p29
(i__main__
adj_list
p30
(dp31
g4
g29
sg5
Nsg6
Nsg7
Nsg8
Nsg9
(lp32
S'n485'
p33
aS'n564'
p34
asbsS'\\U0/U0/IN2T'
p35
(i__main__
adj_list
p36
(dp37
g4
g35
sg5
Nsg6
Nsg7
Nsg8
Nsg9
(lp38
S'n25'
p39
aS'n43'
p40
aS'n70'
p41
aS'n112'
p42
aS'n145'
p43
aS'n175'
p44
aS'n206'
p45
aS'n263'
p46
aS'n310'
p47
aS'n355'
p48
aS'n395'
p49
aS'n478'
p50
aS'n535'
p51
aS'n616'
p52
aS'n696'
p53
aS'n774'
p54
asbsS'n550'
p55
(i__main__
adj_list
p56
(dp57
g4
g55
sg5
Nsg6
Nsg7
Nsg8
Nsg9
(lp58
S'n466'
p59
asbsS'n562'
p60
(i__main__
adj_list
p61
(dp62
g4
g60
sg5
Nsg6
Nsg7
Nsg8
Nsg9
(lp63
g33
ag34
asbsS'n492'
p64
(i__main__
adj_list
p65
(dp66
g4
g64
sg5
Nsg6
Nsg7
Nsg8
Nsg9
(lp67
S'n433'
p68
aS'n494'
p69
asbsS'n551'
p70
(i__main__
adj_list
p71
(dp72
g4
g70
sg5
Nsg6
Nsg7
Nsg8
Nsg9
(lp73
S'n454'
p74
asbsS'n38'
p75
(i__main__
adj_list
p76
(dp77
g4
g75
sg5
Nsg6
Nsg7
Nsg8
Nsg9
(lp78
S'n35'
p79
aS'n123'
p80
asbsS'n39'
p81
(i__main__
adj_list
p82
(dp83
g4
g81
sg5
Nsg6
Nsg7
Nsg8
Nsg9
(lp84
g79
ag80
asbsS'n1145'
p85
(i__main__
adj_list
p86
(dp87
g4
g85
sg5
Nsg6
Nsg7
Nsg8
Nsg9
(lp88
S'n1093'
p89
aS'n1096'
p90
asbsS'n1111'
p91
(i__main__
adj_list
p92
(dp93
g4
g91
sg5
Nsg6
Nsg7
Nsg8
Nsg9
(lp94
S'n1074'
p95
asbsS'n94'
p96
(i__main__
adj_list
p97
(dp98
g4
g96
sg5
Nsg6
Nsg7
Nsg8
Nsg9
(lp99
S'n59'
p100
aS'n79'
p101
aS'n81'
p102
asbsS'n538'
p103
(i__main__
adj_list
p104
(dp105
g4
g103
sg5
Nsg6
Nsg7
Nsg8
Nsg9
(lp106
S'n495'
p107
aS'n539'
p108
asbsS'n539'
p109
(i__main__
adj_list
p110
(dp111
g4
g109
sg5
Nsg6
Nsg7
Nsg8
Nsg9
(lp112
g107
aS'n523'
p113
asbsS'n30'
p114
(i__main__
adj_list
p115
(dp116
g4
g114
sg5
Nsg6
Nsg7
Nsg8
Nsg9
(lp117
S'n29'
p118
aS'n40'
p119
asbsS'n31'
p120
(i__main__
adj_list
p121
(dp122
g4
g120
sg5
Nsg6
Nsg7
Nsg8
Nsg9
(lp123
S'n28'
p124
asbsS'n32'
p125
(i__main__
adj_list
p126
(dp127
g4
g125
sg5
Nsg6
Nsg7
Nsg8
Nsg9
(lp128
g124
aS'n74'
p129
asbsS'n33'
p130
(i__main__
adj_list
p131
(dp132
g4
g130
sg5
Nsg6
Nsg7
Nsg8
Nsg9
(lp133
g124
aS'n50'
p134
aS'P[29]'
p135
asbsS'n34'
p136
(i__main__
adj_list
p137
(dp138
g4
g136
sg5
Nsg6
Nsg7
Nsg8
Nsg9
(lp139
S'n31'
p140
aS'n58'
p141
aS'n78'
p142
aS'n92'
p143
aS'P[27]'
p144
asbsS'n35'
p145
(i__main__
adj_list
p146
(dp147
g4
g145
sg5
Nsg6
Nsg7
Nsg8
Nsg9
(lp148
g140
asbsS'n36'
p149
(i__main__
adj_list
p150
(dp151
g4
g149
sg5
Nsg6
Nsg7
Nsg8
Nsg9
(lp152
g140
aS'n49'
p153
aS'P[28]'
p154
asbsS'n37'
p155
(i__main__
adj_list
p156
(dp157
g4
g155
sg5
Nsg6
Nsg7
Nsg8
Nsg9
(lp158
g79
aS'P[23]'
p159
asbsS'n1041'
p160
(i__main__
adj_list
p161
(dp162
g4
g160
sg5
Nsg6
Nsg7
Nsg8
Nsg9
(lp163
g16
ag17
asbsS'n657'
p164
(i__main__
adj_list
p165
(dp166
g4
g164
sg5
Nsg6
Nsg7
Nsg8
Nsg9
(lp167
S'n650'
p168
asbsS'\\U0/U0/U1/IN1P[8]'
p169
(i__main__
adj_list
p170
(dp171
g4
g169
sg5
Nsg6
Nsg7
Nsg8
Nsg9
(lp172
S'n304'
p173
ag46
aS'n348'
p174
aS'n352'
p175
aS'n400'
p176
aS'n460'
p177
aS'n470'
p178
aS'n557'
p179
aS'n583'
p180
aS'n555'
p181
aS'n684'
p182
aS'n819'
p183
aS'n745'
p184
aS'n884'
p185
aS'n943'
p186
aS'n1005'
p187
aS'n1052'
p188
aS'n673'
p189
aS'n1107'
p190
aS'n1249'
p191
aS'n1275'
p192
asbsS'n1195'
p193
(i__main__
adj_list
p194
(dp195
g4
g193
sg5
Nsg6
Nsg7
Nsg8
Nsg9
(lp196
S'n1099'
p197
aS'n1189'
p198
asbsS'n656'
p199
(i__main__
adj_list
p200
(dp201
g4
g199
sg5
Nsg6
Nsg7
Nsg8
Nsg9
(lp202
S'n442'
p203
aS'n926'
p204
asbsS'n569'
p205
(i__main__
adj_list
p206
(dp207
g4
g205
sg5
Nsg6
Nsg7
Nsg8
Nsg9
(lp208
S'n447'
p209
aS'n570'
p210
asbsS'n788'
p211
(i__main__
adj_list
p212
(dp213
g4
g211
sg5
Nsg6
Nsg7
Nsg8
Nsg9
(lp214
S'n786'
p215
aS'n784'
p216
asbsS'n568'
p217
(i__main__
adj_list
p218
(dp219
g4
g217
sg5
Nsg6
Nsg7
Nsg8
Nsg9
(lp220
g209
ag210
asbsS'n1257'
p221
(i__main__
adj_list
p222
(dp223
g4
g221
sg5
Nsg6
Nsg7
Nsg8
Nsg9
(lp224
S'n1254'
p225
aS'n1256'
p226
asbsS'\\U0/U0/U1/IN1P[13]'
p227
(i__main__
adj_list
p228
(dp229
g4
g227
sg5
Nsg6
Nsg7
Nsg8
Nsg9
(lp230
g41
aS'n71'
p231
aS'n147'
p232
aS'n152'
p233
aS'n180'
p234
aS'n208'
p235
aS'n246'
p236
aS'n287'
p237
aS'n245'
p238
aS'n345'
p239
aS'n411'
p240
aS'n453'
p241
aS'n410'
p242
aS'n550'
p243
aS'n592'
p244
aS'n667'
p245
aS'n600'
p246
aS'n730'
p247
aS'n198'
p248
aS'n807'
p249
aS'n811'
p250
aS'n871'
p251
aS'n931'
p252
asbsS'n1059'
p253
(i__main__
adj_list
p254
(dp255
g4
g253
sg5
Nsg6
Nsg7
Nsg8
Nsg9
(lp256
S'n1026'
p257
asbsS'n628'
p258
(i__main__
adj_list
p259
(dp260
g4
g258
sg5
Nsg6
Nsg7
Nsg8
Nsg9
(lp261
S'n575'
p262
aS'n630'
p263
asbsS'n1058'
p264
(i__main__
adj_list
p265
(dp266
g4
g264
sg5
Nsg6
Nsg7
Nsg8
Nsg9
(lp267
g257
asbsS'n1042'
p268
(i__main__
adj_list
p269
(dp270
g4
g268
sg5
Nsg6
Nsg7
Nsg8
Nsg9
(lp271
S'n649'
p272
asbsS'n774'
p273
(i__main__
adj_list
p274
(dp275
g4
g273
sg5
Nsg6
Nsg7
Nsg8
Nsg9
(lp276
S'n713'
p277
aS'n773'
p278
asbsS'n1279'
p279
(i__main__
adj_list
p280
(dp281
g4
g279
sg5
Nsg6
Nsg7
Nsg8
Nsg9
(lp282
S'n1278'
p283
aS'n1229'
p284
asbsS'n878'
p285
(i__main__
adj_list
p286
(dp287
g4
g285
sg5
Nsg6
Nsg7
Nsg8
Nsg9
(lp288
S'n877'
p289
aS'n886'
p290
asbsS'n947'
p291
(i__main__
adj_list
p292
(dp293
g4
g291
sg5
Nsg6
Nsg7
Nsg8
Nsg9
(lp294
S'n944'
p295
aS'n946'
p296
asbsS'n1114'
p297
(i__main__
adj_list
p298
(dp299
g4
g297
sg5
Nsg6
Nsg7
Nsg8
Nsg9
(lp300
S'n1072'
p301
asbsS'n737'
p302
(i__main__
adj_list
p303
(dp304
g4
g302
sg5
Nsg6
Nsg7
Nsg8
Nsg9
(lp305
S'n665'
p306
asbsg135
(i__main__
adj_list
p307
(dp308
g4
g135
sg5
Nsg6
Nsg7
Nsg8
Nsg9
(lp309
sbsS'n1296'
p310
(i__main__
adj_list
p311
(dp312
g4
g310
sg5
Nsg6
Nsg7
Nsg8
Nsg9
(lp313
S'n1272'
p314
asbsS'n1076'
p315
(i__main__
adj_list
p316
(dp317
g4
g315
sg5
Nsg6
Nsg7
Nsg8
Nsg9
(lp318
S'n1039'
p319
aS'n1077'
p320
asbsS'n629'
p321
(i__main__
adj_list
p322
(dp323
g4
g321
sg5
Nsg6
Nsg7
Nsg8
Nsg9
(lp324
g262
ag263
asbsS'n1043'
p325
(i__main__
adj_list
p326
(dp327
g4
g325
sg5
Nsg6
Nsg7
Nsg8
Nsg9
(lp328
g272
aS'n660'
p329
aS'n1045'
p330
asbsS'n951'
p331
(i__main__
adj_list
p332
(dp333
g4
g331
sg5
Nsg6
Nsg7
Nsg8
Nsg9
(lp334
S'n901'
p335
aS'n952'
p336
asbsS'n1132'
p337
(i__main__
adj_list
p338
(dp339
g4
g337
sg5
Nsg6
Nsg7
Nsg8
Nsg9
(lp340
S'n1081'
p341
aS'n1136'
p342
asbsS'n1290'
p343
(i__main__
adj_list
p344
(dp345
g4
g343
sg5
Nsg6
Nsg7
Nsg8
Nsg9
(lp346
S'n1233'
p347
asbsS'n85'
p348
(i__main__
adj_list
p349
(dp350
g4
g348
sg5
Nsg6
Nsg7
Nsg8
Nsg9
(lp351
S'n82'
p352
aS'P[21]'
p353
asbsS'n84'
p354
(i__main__
adj_list
p355
(dp356
g4
g354
sg5
Nsg6
Nsg7
Nsg8
Nsg9
(lp357
g352
aS'n193'
p358
asbsS'n87'
p359
(i__main__
adj_list
p360
(dp361
g4
g359
sg5
Nsg6
Nsg7
Nsg8
Nsg9
(lp362
S'n32'
p363
aS'n55'
p364
asbsS'n86'
p365
(i__main__
adj_list
p366
(dp367
g4
g365
sg5
Nsg6
Nsg7
Nsg8
Nsg9
(lp368
g352
ag358
asbsS'n81'
p369
(i__main__
adj_list
p370
(dp371
g4
g369
sg5
Nsg6
Nsg7
Nsg8
Nsg9
(lp372
S'n80'
p373
aS'n125'
p374
aS'n127'
p375
aS'n38'
p376
aS'n61'
p377
asbsS'n80'
p378
(i__main__
adj_list
p379
(dp380
g4
g378
sg5
Nsg6
Nsg7
Nsg8
Nsg9
(lp381
S'n77'
p382
asbsS'n83'
p383
(i__main__
adj_list
p384
(dp385
g4
g383
sg5
Nsg6
Nsg7
Nsg8
Nsg9
(lp386
g373
ag374
aS'n99'
p387
aS'n98'
p388
aS'P[25]'
p389
asbsS'n82'
p390
(i__main__
adj_list
p391
(dp392
g4
g390
sg5
Nsg6
Nsg7
Nsg8
Nsg9
(lp393
g373
asbsS'n402'
p394
(i__main__
adj_list
p395
(dp396
g4
g394
sg5
Nsg6
Nsg7
Nsg8
Nsg9
(lp397
S'n399'
p398
aS'n401'
p399
asbsS'n403'
p400
(i__main__
adj_list
p401
(dp402
g4
g400
sg5
Nsg6
Nsg7
Nsg8
Nsg9
(lp403
S'n372'
p404
aS'n405'
p405
asbsS'n400'
p406
(i__main__
adj_list
p407
(dp408
g4
g406
sg5
Nsg6
Nsg7
Nsg8
Nsg9
(lp409
S'n356'
p410
asbsS'n401'
p411
(i__main__
adj_list
p412
(dp413
g4
g411
sg5
Nsg6
Nsg7
Nsg8
Nsg9
(lp414
g176
aS'n394'
p415
asbsS'n89'
p416
(i__main__
adj_list
p417
(dp418
g4
g416
sg5
Nsg6
Nsg7
Nsg8
Nsg9
(lp419
g363
ag100
aS'n34'
p420
asbsS'n88'
p421
(i__main__
adj_list
p422
(dp423
g4
g421
sg5
Nsg6
Nsg7
Nsg8
Nsg9
(lp424
g363
asbsS'n404'
p425
(i__main__
adj_list
p426
(dp427
g4
g425
sg5
Nsg6
Nsg7
Nsg8
Nsg9
(lp428
g404
ag405
asbsS'n405'
p429
(i__main__
adj_list
p430
(dp431
g4
g429
sg5
Nsg6
Nsg7
Nsg8
Nsg9
(lp432
g404
aS'n391'
p433
asbsS'n659'
p434
(i__main__
adj_list
p435
(dp436
g4
g434
sg5
Nsg6
Nsg7
Nsg8
Nsg9
(lp437
S'n657'
p438
asbsS'n1026'
p439
(i__main__
adj_list
p440
(dp441
g4
g439
sg5
Nsg6
Nsg7
Nsg8
Nsg9
(lp442
S'n972'
p443
aS'n1027'
p444
asbsS'n1219'
p445
(i__main__
adj_list
p446
(dp447
g4
g445
sg5
Nsg6
Nsg7
Nsg8
Nsg9
(lp448
S'n1089'
p449
aS'n1226'
p450
asbsS'n1044'
p451
(i__main__
adj_list
p452
(dp453
g4
g451
sg5
Nsg6
Nsg7
Nsg8
Nsg9
(lp454
S'n1042'
p455
ag329
ag330
asbsS'n658'
p456
(i__main__
adj_list
p457
(dp458
g4
g456
sg5
Nsg6
Nsg7
Nsg8
Nsg9
(lp459
g168
aS'n522'
p460
aS'n983'
p461
aS'P[12]'
p462
asbsS'n1226'
p463
(i__main__
adj_list
p464
(dp465
g4
g463
sg5
Nsg6
Nsg7
Nsg8
Nsg9
(lp466
S'n1221'
p467
aS'n1196'
p468
asbsS'n1242'
p469
(i__main__
adj_list
p470
(dp471
g4
g469
sg5
Nsg6
Nsg7
Nsg8
Nsg9
(lp472
S'n1239'
p473
asbsS'n710'
p474
(i__main__
adj_list
p475
(dp476
g4
g474
sg5
Nsg6
Nsg7
Nsg8
Nsg9
(lp477
S'n631'
p478
aS'n718'
p479
asbsS'n392'
p480
(i__main__
adj_list
p481
(dp482
g4
g480
sg5
Nsg6
Nsg7
Nsg8
Nsg9
(lp483
S'n389'
p484
aS'n458'
p485
aS'n487'
p486
asbsS'n393'
p487
(i__main__
adj_list
p488
(dp489
g4
g487
sg5
Nsg6
Nsg7
Nsg8
Nsg9
(lp490
S'n370'
p491
aS'n424'
p492
asbsS'n390'
p493
(i__main__
adj_list
p494
(dp495
g4
g493
sg5
Nsg6
Nsg7
Nsg8
Nsg9
(lp496
S'n366'
p497
aS'n459'
p498
ag486
asbsS'n391'
p499
(i__main__
adj_list
p500
(dp501
g4
g499
sg5
Nsg6
Nsg7
Nsg8
Nsg9
(lp502
g484
aS'n387'
p503
asbsS'n396'
p504
(i__main__
adj_list
p505
(dp506
g4
g504
sg5
Nsg6
Nsg7
Nsg8
Nsg9
(lp507
g491
aS'n393'
p508
asbsS'n397'
p509
(i__main__
adj_list
p510
(dp511
g4
g509
sg5
Nsg6
Nsg7
Nsg8
Nsg9
(lp512
S'n353'
p513
asbsS'n394'
p514
(i__main__
adj_list
p515
(dp516
g4
g514
sg5
Nsg6
Nsg7
Nsg8
Nsg9
(lp517
g491
ag492
asbsS'n395'
p518
(i__main__
adj_list
p519
(dp520
g4
g518
sg5
Nsg6
Nsg7
Nsg8
Nsg9
(lp521
g491
ag508
asbsS'P[1]'
p522
(i__main__
adj_list
p523
(dp524
g4
g522
sg5
Nsg6
Nsg7
Nsg8
Nsg9
(lp525
sbsS'n398'
p526
(i__main__
adj_list
p527
(dp528
g4
g526
sg5
Nsg6
Nsg7
Nsg8
Nsg9
(lp529
S'n351'
p530
asbsS'n399'
p531
(i__main__
adj_list
p532
(dp533
g4
g531
sg5
Nsg6
Nsg7
Nsg8
Nsg9
(lp534
g410
asbsS'n536'
p535
(i__main__
adj_list
p536
(dp537
g4
g535
sg5
Nsg6
Nsg7
Nsg8
Nsg9
(lp538
S'n493'
p539
aS'n534'
p540
asbsS'n1208'
p541
(i__main__
adj_list
p542
(dp543
g4
g541
sg5
Nsg6
Nsg7
Nsg8
Nsg9
(lp544
S'n1182'
p545
aS'n1206'
p546
asbsS'P[26]'
p547
(i__main__
adj_list
p548
(dp549
g4
g547
sg5
Nsg6
Nsg7
Nsg8
Nsg9
(lp550
sbsS'n1218'
p551
(i__main__
adj_list
p552
(dp553
g4
g551
sg5
Nsg6
Nsg7
Nsg8
Nsg9
(lp554
g449
asbsS'n537'
p555
(i__main__
adj_list
p556
(dp557
g4
g555
sg5
Nsg6
Nsg7
Nsg8
Nsg9
(lp558
g107
ag108
asbsS'n954'
p559
(i__main__
adj_list
p560
(dp561
g4
g559
sg5
Nsg6
Nsg7
Nsg8
Nsg9
(lp562
S'n908'
p563
asbsS'n953'
p564
(i__main__
adj_list
p565
(dp566
g4
g564
sg5
Nsg6
Nsg7
Nsg8
Nsg9
(lp567
g335
aS'n967'
p568
asbsS'n534'
p569
(i__main__
adj_list
p570
(dp571
g4
g569
sg5
Nsg6
Nsg7
Nsg8
Nsg9
(lp572
g539
aS'n566'
p573
asbsS'n508'
p574
(i__main__
adj_list
p575
(dp576
g4
g574
sg5
Nsg6
Nsg7
Nsg8
Nsg9
(lp577
S'n332'
p578
asbsS'n1146'
p579
(i__main__
adj_list
p580
(dp581
g4
g579
sg5
Nsg6
Nsg7
Nsg8
Nsg9
(lp582
S'n15'
p583
asbsS'n240'
p584
(i__main__
adj_list
p585
(dp586
g4
g584
sg5
Nsg6
Nsg7
Nsg8
Nsg9
(lp587
S'n202'
p588
aS'n220'
p589
asbsS'n241'
p590
(i__main__
adj_list
p591
(dp592
g4
g590
sg5
Nsg6
Nsg7
Nsg8
Nsg9
(lp593
g588
ag589
asbsS'n242'
p594
(i__main__
adj_list
p595
(dp596
g4
g594
sg5
Nsg6
Nsg7
Nsg8
Nsg9
(lp597
S'n201'
p598
asbsS'n243'
p599
(i__main__
adj_list
p600
(dp601
g4
g599
sg5
Nsg6
Nsg7
Nsg8
Nsg9
(lp602
g598
asbsS'n244'
p603
(i__main__
adj_list
p604
(dp605
g4
g603
sg5
Nsg6
Nsg7
Nsg8
Nsg9
(lp606
S'n243'
p607
aS'n249'
p608
asbsS'n245'
p609
(i__main__
adj_list
p610
(dp611
g4
g609
sg5
Nsg6
Nsg7
Nsg8
Nsg9
(lp612
S'n242'
p613
aS'n244'
p614
asbsS'n246'
p615
(i__main__
adj_list
p616
(dp617
g4
g615
sg5
Nsg6
Nsg7
Nsg8
Nsg9
(lp618
S'n194'
p619
asbsS'n247'
p620
(i__main__
adj_list
p621
(dp622
g4
g620
sg5
Nsg6
Nsg7
Nsg8
Nsg9
(lp623
S'n215'
p624
asbsS'n248'
p625
(i__main__
adj_list
p626
(dp627
g4
g625
sg5
Nsg6
Nsg7
Nsg8
Nsg9
(lp628
S'n247'
p629
asbsS'n249'
p630
(i__main__
adj_list
p631
(dp632
g4
g630
sg5
Nsg6
Nsg7
Nsg8
Nsg9
(lp633
S'n224'
p634
aS'n252'
p635
asbsS'n1158'
p636
(i__main__
adj_list
p637
(dp638
g4
g636
sg5
Nsg6
Nsg7
Nsg8
Nsg9
(lp639
S'n1156'
p640
aS'n1141'
p641
aS'n1145'
p642
asbsS'n765'
p643
(i__main__
adj_list
p644
(dp645
g4
g643
sg5
Nsg6
Nsg7
Nsg8
Nsg9
(lp646
S'n709'
p647
aS'n783'
p648
asbsS'n718'
p649
(i__main__
adj_list
p650
(dp651
g4
g649
sg5
Nsg6
Nsg7
Nsg8
Nsg9
(lp652
S'n634'
p653
aS'n722'
p654
asbsS'n533'
p655
(i__main__
adj_list
p656
(dp657
g4
g655
sg5
Nsg6
Nsg7
Nsg8
Nsg9
(lp658
g539
ag573
asbsS'n1068'
p659
(i__main__
adj_list
p660
(dp661
g4
g659
sg5
Nsg6
Nsg7
Nsg8
Nsg9
(lp662
S'n1034'
p663
aS'n993'
p664
asbsS'n940'
p665
(i__main__
adj_list
p666
(dp667
g4
g665
sg5
Nsg6
Nsg7
Nsg8
Nsg9
(lp668
S'n899'
p669
asbsS'n499'
p670
(i__main__
adj_list
p671
(dp672
g4
g670
sg5
Nsg6
Nsg7
Nsg8
Nsg9
(lp673
S'n498'
p674
aS'n384'
p675
asbsS'n498'
p676
(i__main__
adj_list
p677
(dp678
g4
g676
sg5
Nsg6
Nsg7
Nsg8
Nsg9
(lp679
S'n100'
p680
asbsS'n329'
p681
(i__main__
adj_list
p682
(dp683
g4
g681
sg5
Nsg6
Nsg7
Nsg8
Nsg9
(lp684
S'n327'
p685
aS'n279'
p686
aS'n235'
p687
asbsS'n328'
p688
(i__main__
adj_list
p689
(dp690
g4
g688
sg5
Nsg6
Nsg7
Nsg8
Nsg9
(lp691
g685
ag686
ag687
asbsS'n327'
p692
(i__main__
adj_list
p693
(dp694
g4
g692
sg5
Nsg6
Nsg7
Nsg8
Nsg9
(lp695
S'n231'
p696
asbsS'n326'
p697
(i__main__
adj_list
p698
(dp699
g4
g697
sg5
Nsg6
Nsg7
Nsg8
Nsg9
(lp700
S'n325'
p701
aS'n238'
p702
asbsS'n325'
p703
(i__main__
adj_list
p704
(dp705
g4
g703
sg5
Nsg6
Nsg7
Nsg8
Nsg9
(lp706
S'n133'
p707
asbsS'n324'
p708
(i__main__
adj_list
p709
(dp710
g4
g708
sg5
Nsg6
Nsg7
Nsg8
Nsg9
(lp711
S'n37'
p712
asbsS'n323'
p713
(i__main__
adj_list
p714
(dp715
g4
g713
sg5
Nsg6
Nsg7
Nsg8
Nsg9
(lp716
S'n233'
p717
aS'n282'
p718
asbsS'n322'
p719
(i__main__
adj_list
p720
(dp721
g4
g719
sg5
Nsg6
Nsg7
Nsg8
Nsg9
(lp722
g717
ag718
asbsS'n321'
p723
(i__main__
adj_list
p724
(dp725
g4
g723
sg5
Nsg6
Nsg7
Nsg8
Nsg9
(lp726
g717
aS'n323'
p727
asbsS'n320'
p728
(i__main__
adj_list
p729
(dp730
g4
g728
sg5
Nsg6
Nsg7
Nsg8
Nsg9
(lp731
g717
ag727
asbsS'n811'
p732
(i__main__
adj_list
p733
(dp734
g4
g732
sg5
Nsg6
Nsg7
Nsg8
Nsg9
(lp735
S'n808'
p736
aS'n810'
p737
asbsS'n810'
p738
(i__main__
adj_list
p739
(dp740
g4
g738
sg5
Nsg6
Nsg7
Nsg8
Nsg9
(lp741
S'n809'
p742
aS'n827'
p743
asbsS'n813'
p744
(i__main__
adj_list
p745
(dp746
g4
g744
sg5
Nsg6
Nsg7
Nsg8
Nsg9
(lp747
S'n740'
p748
asbsS'n812'
p749
(i__main__
adj_list
p750
(dp751
g4
g749
sg5
Nsg6
Nsg7
Nsg8
Nsg9
(lp752
S'n748'
p753
asbsS'n815'
p754
(i__main__
adj_list
p755
(dp756
g4
g754
sg5
Nsg6
Nsg7
Nsg8
Nsg9
(lp757
S'n761'
p758
asbsS'n814'
p759
(i__main__
adj_list
p760
(dp761
g4
g759
sg5
Nsg6
Nsg7
Nsg8
Nsg9
(lp762
g758
asbsS'n817'
p763
(i__main__
adj_list
p764
(dp765
g4
g763
sg5
Nsg6
Nsg7
Nsg8
Nsg9
(lp766
S'n814'
p767
aS'n816'
p768
asbsS'n816'
p769
(i__main__
adj_list
p770
(dp771
g4
g769
sg5
Nsg6
Nsg7
Nsg8
Nsg9
(lp772
S'n815'
p773
aS'n824'
p774
asbsS'n819'
p775
(i__main__
adj_list
p776
(dp777
g4
g775
sg5
Nsg6
Nsg7
Nsg8
Nsg9
(lp778
S'n759'
p779
asbsS'n818'
p780
(i__main__
adj_list
p781
(dp782
g4
g780
sg5
Nsg6
Nsg7
Nsg8
Nsg9
(lp783
g779
asbsS'n1275'
p784
(i__main__
adj_list
p785
(dp786
g4
g784
sg5
Nsg6
Nsg7
Nsg8
Nsg9
(lp787
S'n1267'
p788
asbsS'n760'
p789
(i__main__
adj_list
p790
(dp791
g4
g789
sg5
Nsg6
Nsg7
Nsg8
Nsg9
(lp792
S'n707'
p793
aS'n762'
p794
asbsS'n1273'
p795
(i__main__
adj_list
p796
(dp797
g4
g795
sg5
Nsg6
Nsg7
Nsg8
Nsg9
(lp798
S'n1135'
p799
aS'n1222'
p800
asbsS'\\U0/U0/IN2R[6]'
p801
(i__main__
adj_list
p802
(dp803
g4
g801
sg5
Nsg6
Nsg7
Nsg8
Nsg9
(lp804
S'n408'
p805
aS'n335'
p806
ag241
aS'n456'
p807
aS'n547'
p808
ag243
aS'n602'
p809
aS'n606'
p810
aS'n671'
p811
aS'n675'
p812
aS'n743'
p813
aS'n746'
p814
ag183
aS'n822'
p815
aS'n881'
p816
ag185
aS'n945'
p817
aS'n948'
p818
aS'n1010'
p819
aS'n1013'
p820
aS'n1059'
p821
aS'n1062'
p822
aS'n1115'
p823
aS'n1118'
p824
aS'n1212'
p825
aS'n1194'
p826
aS'n1244'
p827
aS'n1259'
p828
aS'n1262'
p829
aS'n1269'
p830
aS'n1293'
p831
asbsS'n1271'
p832
(i__main__
adj_list
p833
(dp834
g4
g832
sg5
Nsg6
Nsg7
Nsg8
Nsg9
(lp835
S'n1133'
p836
aS'n1273'
p837
asbsS'n1270'
p838
(i__main__
adj_list
p839
(dp840
g4
g838
sg5
Nsg6
Nsg7
Nsg8
Nsg9
(lp841
g836
aS'n1271'
p842
asbsS'n891'
p843
(i__main__
adj_list
p844
(dp845
g4
g843
sg5
Nsg6
Nsg7
Nsg8
Nsg9
(lp846
S'n851'
p847
asbsS'\\U0/U0/U1/IN1P[1]'
p848
(i__main__
adj_list
p849
(dp850
g4
g848
sg5
Nsg6
Nsg7
Nsg8
Nsg9
(lp851
S'n506'
p852
aS'n768'
p853
ag53
aS'n845'
p854
aS'n843'
p855
aS'n849'
p856
aS'n954'
p857
aS'n968'
p858
aS'n1024'
p859
ag663
aS'n1022'
p860
aS'n1114'
p861
aS'n1124'
p862
aS'n16'
p863
aS'n1169'
p864
aS'n1185'
p865
aS'n1183'
p866
aS'n1187'
p867
aS'n1175'
p868
aS'n1217'
p869
aS'n1242'
p870
aS'n1240'
p871
ag827
aS'n1263'
p872
ag830
aS'n1261'
p873
asbsS'n946'
p874
(i__main__
adj_list
p875
(dp876
g4
g874
sg5
Nsg6
Nsg7
Nsg8
Nsg9
(lp877
g817
aS'n960'
p878
asbsS'n730'
p879
(i__main__
adj_list
p880
(dp881
g4
g879
sg5
Nsg6
Nsg7
Nsg8
Nsg9
(lp882
S'n662'
p883
asbsS'n949'
p884
(i__main__
adj_list
p885
(dp886
g4
g884
sg5
Nsg6
Nsg7
Nsg8
Nsg9
(lp887
S'n882'
p888
asbsS'n1154'
p889
(i__main__
adj_list
p890
(dp891
g4
g889
sg5
Nsg6
Nsg7
Nsg8
Nsg9
(lp892
S'n6'
p893
asbsS'n948'
p894
(i__main__
adj_list
p895
(dp896
g4
g894
sg5
Nsg6
Nsg7
Nsg8
Nsg9
(lp897
S'n896'
p898
asbsS'n884'
p899
(i__main__
adj_list
p900
(dp901
g4
g899
sg5
Nsg6
Nsg7
Nsg8
Nsg9
(lp902
S'n834'
p903
asbsS'n1141'
p904
(i__main__
adj_list
p905
(dp906
g4
g904
sg5
Nsg6
Nsg7
Nsg8
Nsg9
(lp907
S'n1092'
p908
aS'n1154'
p909
aS'n8'
p910
asbsS'n1105'
p911
(i__main__
adj_list
p912
(dp913
g4
g911
sg5
Nsg6
Nsg7
Nsg8
Nsg9
(lp914
S'n1065'
p915
asbsS'\\U0/U0/IN2R[14]'
p916
(i__main__
adj_list
p917
(dp918
g4
g916
sg5
Nsg6
Nsg7
Nsg8
Nsg9
(lp919
S'n45'
p920
aS'n72'
p921
ag232
aS'n117'
p922
aS'n257'
p923
aS'n303'
p924
ag173
ag174
aS'n349'
p925
aS'n398'
p926
ag398
aS'n471'
p927
aS'n472'
p928
aS'n528'
p929
aS'n529'
p930
aS'n609'
p931
aS'n610'
p932
aS'n699'
p933
aS'n700'
p934
aS'n767'
p935
ag853
ag854
aS'n846'
p936
aS'n906'
p937
asbsS'n662'
p938
(i__main__
adj_list
p939
(dp940
g4
g938
sg5
Nsg6
Nsg7
Nsg8
Nsg9
(lp941
S'n579'
p942
aS'n664'
p943
asbsS'n663'
p944
(i__main__
adj_list
p945
(dp946
g4
g944
sg5
Nsg6
Nsg7
Nsg8
Nsg9
(lp947
g942
ag943
asbsS'n149'
p948
(i__main__
adj_list
p949
(dp950
g4
g948
sg5
Nsg6
Nsg7
Nsg8
Nsg9
(lp951
S'n113'
p952
asbsS'n148'
p953
(i__main__
adj_list
p954
(dp955
g4
g953
sg5
Nsg6
Nsg7
Nsg8
Nsg9
(lp956
g952
asbsS'n666'
p957
(i__main__
adj_list
p958
(dp959
g4
g957
sg5
Nsg6
Nsg7
Nsg8
Nsg9
(lp960
S'n591'
p961
asbsS'n667'
p962
(i__main__
adj_list
p963
(dp964
g4
g962
sg5
Nsg6
Nsg7
Nsg8
Nsg9
(lp965
g961
asbsS'n664'
p966
(i__main__
adj_list
p967
(dp968
g4
g966
sg5
Nsg6
Nsg7
Nsg8
Nsg9
(lp969
g942
aS'n692'
p970
asbsS'n665'
p971
(i__main__
adj_list
p972
(dp973
g4
g971
sg5
Nsg6
Nsg7
Nsg8
Nsg9
(lp974
g942
aS'n594'
p975
ag970
asbsS'n143'
p976
(i__main__
adj_list
p977
(dp978
g4
g976
sg5
Nsg6
Nsg7
Nsg8
Nsg9
(lp979
S'n120'
p980
aS'n154'
p981
asbsS'n142'
p982
(i__main__
adj_list
p983
(dp984
g4
g982
sg5
Nsg6
Nsg7
Nsg8
Nsg9
(lp985
S'n121'
p986
aS'n109'
p987
asbsS'n141'
p988
(i__main__
adj_list
p989
(dp990
g4
g988
sg5
Nsg6
Nsg7
Nsg8
Nsg9
(lp991
g986
ag987
asbsS'n140'
p992
(i__main__
adj_list
p993
(dp994
g4
g992
sg5
Nsg6
Nsg7
Nsg8
Nsg9
(lp995
S'n136'
p996
aS'n184'
p997
aS'n192'
p998
asbsS'P[6]'
p999
(i__main__
adj_list
p1000
(dp1001
g4
g999
sg5
Nsg6
Nsg7
Nsg8
Nsg9
(lp1002
sbsS'n146'
p1003
(i__main__
adj_list
p1004
(dp1005
g4
g1003
sg5
Nsg6
Nsg7
Nsg8
Nsg9
(lp1006
g980
aS'n143'
p1007
asbsS'n145'
p1008
(i__main__
adj_list
p1009
(dp1010
g4
g1008
sg5
Nsg6
Nsg7
Nsg8
Nsg9
(lp1011
g980
ag1007
asbsS'n144'
p1012
(i__main__
adj_list
p1013
(dp1014
g4
g1012
sg5
Nsg6
Nsg7
Nsg8
Nsg9
(lp1015
g980
ag981
asbsS'n74'
p1016
(i__main__
adj_list
p1017
(dp1018
g4
g1016
sg5
Nsg6
Nsg7
Nsg8
Nsg9
(lp1019
S'n65'
p1020
asbsS'n75'
p1021
(i__main__
adj_list
p1022
(dp1023
g4
g1021
sg5
Nsg6
Nsg7
Nsg8
Nsg9
(lp1024
g1020
asbsS'n76'
p1025
(i__main__
adj_list
p1026
(dp1027
g4
g1025
sg5
Nsg6
Nsg7
Nsg8
Nsg9
(lp1028
S'n75'
p1029
aS'n88'
p1030
aS'n36'
p1031
asbsS'n77'
p1032
(i__main__
adj_list
p1033
(dp1034
g4
g1032
sg5
Nsg6
Nsg7
Nsg8
Nsg9
(lp1035
g1029
asbsS'n70'
p1036
(i__main__
adj_list
p1037
(dp1038
g4
g1036
sg5
Nsg6
Nsg7
Nsg8
Nsg9
(lp1039
S'n27'
p1040
aS'n69'
p1041
asbsS'n71'
p1042
(i__main__
adj_list
p1043
(dp1044
g4
g1042
sg5
Nsg6
Nsg7
Nsg8
Nsg9
(lp1045
g1040
ag1041
asbsS'n72'
p1046
(i__main__
adj_list
p1047
(dp1048
g4
g1046
sg5
Nsg6
Nsg7
Nsg8
Nsg9
(lp1049
S'n42'
p1050
aS'n68'
p1051
asbsS'n73'
p1052
(i__main__
adj_list
p1053
(dp1054
g4
g1052
sg5
Nsg6
Nsg7
Nsg8
Nsg9
(lp1055
g1050
ag1051
asbsS'n892'
p1056
(i__main__
adj_list
p1057
(dp1058
g4
g1056
sg5
Nsg6
Nsg7
Nsg8
Nsg9
(lp1059
S'n891'
p1060
aS'n907'
p1061
asbsS'n78'
p1062
(i__main__
adj_list
p1063
(dp1064
g4
g1062
sg5
Nsg6
Nsg7
Nsg8
Nsg9
(lp1065
g1029
aS'n93'
p1066
asbsS'n79'
p1067
(i__main__
adj_list
p1068
(dp1069
g4
g1067
sg5
Nsg6
Nsg7
Nsg8
Nsg9
(lp1070
g382
aS'n39'
p1071
asbsS'n864'
p1072
(i__main__
adj_list
p1073
(dp1074
g4
g1072
sg5
Nsg6
Nsg7
Nsg8
Nsg9
(lp1075
S'n331'
p1076
asbsS'n338'
p1077
(i__main__
adj_list
p1078
(dp1079
g4
g1077
sg5
Nsg6
Nsg7
Nsg8
Nsg9
(lp1080
S'n336'
p1081
aS'n407'
p1082
aS'n452'
p1083
aS'n457'
p1084
aS'n546'
p1085
aS'n551'
p1086
aS'n601'
p1087
aS'n607'
p1088
aS'n670'
p1089
aS'n676'
p1090
aS'n747'
p1091
asbsS'n866'
p1092
(i__main__
adj_list
p1093
(dp1094
g4
g1092
sg5
Nsg6
Nsg7
Nsg8
Nsg9
(lp1095
S'n652'
p1096
aS'n646'
p1097
aS'n518'
p1098
asbsS'n867'
p1099
(i__main__
adj_list
p1100
(dp1101
g4
g1099
sg5
Nsg6
Nsg7
Nsg8
Nsg9
(lp1102
S'n865'
p1103
aS'n925'
p1104
ag1098
asbsS'n860'
p1105
(i__main__
adj_list
p1106
(dp1107
g4
g1105
sg5
Nsg6
Nsg7
Nsg8
Nsg9
(lp1108
S'n729'
p1109
aS'n863'
p1110
asbsS'n861'
p1111
(i__main__
adj_list
p1112
(dp1113
g4
g1111
sg5
Nsg6
Nsg7
Nsg8
Nsg9
(lp1114
g1109
ag1110
asbsS'n862'
p1115
(i__main__
adj_list
p1116
(dp1117
g4
g1115
sg5
Nsg6
Nsg7
Nsg8
Nsg9
(lp1118
g1109
aS'n801'
p1119
asbsS'n863'
p1120
(i__main__
adj_list
p1121
(dp1122
g4
g1120
sg5
Nsg6
Nsg7
Nsg8
Nsg9
(lp1123
g1109
ag1119
asbsS'n868'
p1124
(i__main__
adj_list
p1125
(dp1126
g4
g1124
sg5
Nsg6
Nsg7
Nsg8
Nsg9
(lp1127
g743
asbsS'n869'
p1128
(i__main__
adj_list
p1129
(dp1130
g4
g1128
sg5
Nsg6
Nsg7
Nsg8
Nsg9
(lp1131
g737
asbsS'n1143'
p1132
(i__main__
adj_list
p1133
(dp1134
g4
g1132
sg5
Nsg6
Nsg7
Nsg8
Nsg9
(lp1135
g908
ag909
ag910
asbsS'n895'
p1136
(i__main__
adj_list
p1137
(dp1138
g4
g1136
sg5
Nsg6
Nsg7
Nsg8
Nsg9
(lp1139
S'n830'
p1140
asbsS'n1209'
p1141
(i__main__
adj_list
p1142
(dp1143
g4
g1141
sg5
Nsg6
Nsg7
Nsg8
Nsg9
(lp1144
g545
asbsS'n1020'
p1145
(i__main__
adj_list
p1146
(dp1147
g4
g1145
sg5
Nsg6
Nsg7
Nsg8
Nsg9
(lp1148
S'n970'
p1149
asbsS'n1079'
p1150
(i__main__
adj_list
p1151
(dp1152
g4
g1150
sg5
Nsg6
Nsg7
Nsg8
Nsg9
(lp1153
S'n989'
p1154
asbsS'n955'
p1155
(i__main__
adj_list
p1156
(dp1157
g4
g1155
sg5
Nsg6
Nsg7
Nsg8
Nsg9
(lp1158
g563
asbsS'n958'
p1159
(i__main__
adj_list
p1160
(dp1161
g4
g1159
sg5
Nsg6
Nsg7
Nsg8
Nsg9
(lp1162
g1061
asbsS'P[13]'
p1163
(i__main__
adj_list
p1164
(dp1165
g4
g1163
sg5
Nsg6
Nsg7
Nsg8
Nsg9
(lp1166
sbsS'n1108'
p1167
(i__main__
adj_list
p1168
(dp1169
g4
g1167
sg5
Nsg6
Nsg7
Nsg8
Nsg9
(lp1170
S'n1064'
p1171
asbsS'n1232'
p1172
(i__main__
adj_list
p1173
(dp1174
g4
g1172
sg5
Nsg6
Nsg7
Nsg8
Nsg9
(lp1175
S'n1201'
p1176
asbsS'n1167'
p1177
(i__main__
adj_list
p1178
(dp1179
g4
g1177
sg5
Nsg6
Nsg7
Nsg8
Nsg9
(lp1180
S'n1162'
p1181
asbsS'n975'
p1182
(i__main__
adj_list
p1183
(dp1184
g4
g1182
sg5
Nsg6
Nsg7
Nsg8
Nsg9
(lp1185
S'n918'
p1186
aS'n980'
p1187
asbsS'n701'
p1188
(i__main__
adj_list
p1189
(dp1190
g4
g1188
sg5
Nsg6
Nsg7
Nsg8
Nsg9
(lp1191
S'n617'
p1192
asbsS'n1159'
p1193
(i__main__
adj_list
p1194
(dp1195
g4
g1193
sg5
Nsg6
Nsg7
Nsg8
Nsg9
(lp1196
S'n1153'
p1197
aS'n1176'
p1198
asbsS'n885'
p1199
(i__main__
adj_list
p1200
(dp1201
g4
g1199
sg5
Nsg6
Nsg7
Nsg8
Nsg9
(lp1202
S'n820'
p1203
asbsS'n615'
p1204
(i__main__
adj_list
p1205
(dp1206
g4
g1204
sg5
Nsg6
Nsg7
Nsg8
Nsg9
(lp1207
S'n567'
p1208
aS'n626'
p1209
asbsS'n1221'
p1210
(i__main__
adj_list
p1211
(dp1212
g4
g1210
sg5
Nsg6
Nsg7
Nsg8
Nsg9
(lp1213
S'n1218'
p1214
aS'n1192'
p1215
asbsS'n700'
p1216
(i__main__
adj_list
p1217
(dp1218
g4
g1216
sg5
Nsg6
Nsg7
Nsg8
Nsg9
(lp1219
g1192
asbsS'n1021'
p1220
(i__main__
adj_list
p1221
(dp1222
g4
g1220
sg5
Nsg6
Nsg7
Nsg8
Nsg9
(lp1223
S'n1020'
p1224
aS'n1035'
p1225
asbsS'n927'
p1226
(i__main__
adj_list
p1227
(dp1228
g4
g1226
sg5
Nsg6
Nsg7
Nsg8
Nsg9
(lp1229
g1097
aS'n517'
p1230
aS'n658'
p1231
asbsS'n1078'
p1232
(i__main__
adj_list
p1233
(dp1234
g4
g1232
sg5
Nsg6
Nsg7
Nsg8
Nsg9
(lp1235
g319
aS'n1082'
p1236
asbsS'n801'
p1237
(i__main__
adj_list
p1238
(dp1239
g4
g1237
sg5
Nsg6
Nsg7
Nsg8
Nsg9
(lp1240
S'n654'
p1241
aS'n798'
p1242
asbsS'n703'
p1243
(i__main__
adj_list
p1244
(dp1245
g4
g1243
sg5
Nsg6
Nsg7
Nsg8
Nsg9
(lp1246
g934
aS'n702'
p1247
asbsS'n565'
p1248
(i__main__
adj_list
p1249
(dp1250
g4
g1248
sg5
Nsg6
Nsg7
Nsg8
Nsg9
(lp1251
g33
aS'n526'
p1252
asbsS'n564'
p1253
(i__main__
adj_list
p1254
(dp1255
g4
g1253
sg5
Nsg6
Nsg7
Nsg8
Nsg9
(lp1256
g33
ag1252
asbsS'n567'
p1257
(i__main__
adj_list
p1258
(dp1259
g4
g1257
sg5
Nsg6
Nsg7
Nsg8
Nsg9
(lp1260
g209
aS'n568'
p1261
asbsS'n566'
p1262
(i__main__
adj_list
p1263
(dp1264
g4
g1262
sg5
Nsg6
Nsg7
Nsg8
Nsg9
(lp1265
g209
ag1261
asbsS'n561'
p1266
(i__main__
adj_list
p1267
(dp1268
g4
g1266
sg5
Nsg6
Nsg7
Nsg8
Nsg9
(lp1269
S'n483'
p1270
aS'n562'
p1271
asbsS'n560'
p1272
(i__main__
adj_list
p1273
(dp1274
g4
g1272
sg5
Nsg6
Nsg7
Nsg8
Nsg9
(lp1275
g1270
ag1271
asbsS'n448'
p1276
(i__main__
adj_list
p1277
(dp1278
g4
g1276
sg5
Nsg6
Nsg7
Nsg8
Nsg9
(lp1279
S'n381'
p1280
aS'n440'
p1281
asbsS'n449'
p1282
(i__main__
adj_list
p1283
(dp1284
g4
g1282
sg5
Nsg6
Nsg7
Nsg8
Nsg9
(lp1285
g1280
ag1281
asbsS'n446'
p1286
(i__main__
adj_list
p1287
(dp1288
g4
g1286
sg5
Nsg6
Nsg7
Nsg8
Nsg9
(lp1289
g1280
aS'n449'
p1290
asbsS'n447'
p1291
(i__main__
adj_list
p1292
(dp1293
g4
g1291
sg5
Nsg6
Nsg7
Nsg8
Nsg9
(lp1294
g1280
ag1290
asbsS'n444'
p1295
(i__main__
adj_list
p1296
(dp1297
g4
g1295
sg5
Nsg6
Nsg7
Nsg8
Nsg9
(lp1298
S'n436'
p1299
aS'n236'
p1300
asbsS'n445'
p1301
(i__main__
adj_list
p1302
(dp1303
g4
g1301
sg5
Nsg6
Nsg7
Nsg8
Nsg9
(lp1304
S'n237'
p1305
aS'n508'
p1306
aS'n499'
p1307
aS'n503'
p1308
aS'P[17]'
p1309
asbsS'n442'
p1310
(i__main__
adj_list
p1311
(dp1312
g4
g1310
sg5
Nsg6
Nsg7
Nsg8
Nsg9
(lp1313
g1299
ag1300
asbsS'n443'
p1314
(i__main__
adj_list
p1315
(dp1316
g4
g1314
sg5
Nsg6
Nsg7
Nsg8
Nsg9
(lp1317
g1299
aS'n864'
p1318
ag1163
asbsS'n440'
p1319
(i__main__
adj_list
p1320
(dp1321
g4
g1319
sg5
Nsg6
Nsg7
Nsg8
Nsg9
(lp1322
S'n326'
p1323
aS'n378'
p1324
aS'n333'
p1325
asbsS'n441'
p1326
(i__main__
adj_list
p1327
(dp1328
g4
g1326
sg5
Nsg6
Nsg7
Nsg8
Nsg9
(lp1329
S'n439'
p1330
ag1324
ag1325
asbsS'n1295'
p1331
(i__main__
adj_list
p1332
(dp1333
g4
g1331
sg5
Nsg6
Nsg7
Nsg8
Nsg9
(lp1334
g314
asbsS'n1294'
p1335
(i__main__
adj_list
p1336
(dp1337
g4
g1335
sg5
Nsg6
Nsg7
Nsg8
Nsg9
(lp1338
S'n1260'
p1339
asbsS'n1297'
p1340
(i__main__
adj_list
p1341
(dp1342
g4
g1340
sg5
Nsg6
Nsg7
Nsg8
Nsg9
(lp1343
S'n1292'
p1344
asbsS'n733'
p1345
(i__main__
adj_list
p1346
(dp1347
g4
g1345
sg5
Nsg6
Nsg7
Nsg8
Nsg9
(lp1348
S'n663'
p1349
aS'n750'
p1350
asbsS'n1291'
p1351
(i__main__
adj_list
p1352
(dp1353
g4
g1351
sg5
Nsg6
Nsg7
Nsg8
Nsg9
(lp1354
S'n1283'
p1355
asbsS'n707'
p1356
(i__main__
adj_list
p1357
(dp1358
g4
g1356
sg5
Nsg6
Nsg7
Nsg8
Nsg9
(lp1359
S'n629'
p1360
aS'n708'
p1361
asbsS'n1293'
p1362
(i__main__
adj_list
p1363
(dp1364
g4
g1362
sg5
Nsg6
Nsg7
Nsg8
Nsg9
(lp1365
S'n1270'
p1366
asbsS'n843'
p1367
(i__main__
adj_list
p1368
(dp1369
g4
g1367
sg5
Nsg6
Nsg7
Nsg8
Nsg9
(lp1370
S'n842'
p1371
aS'n787'
p1372
asbsS'n1211'
p1373
(i__main__
adj_list
p1374
(dp1375
g4
g1373
sg5
Nsg6
Nsg7
Nsg8
Nsg9
(lp1376
S'n1202'
p1377
aS'n1215'
p1378
asbsS'n734'
p1379
(i__main__
adj_list
p1380
(dp1381
g4
g1379
sg5
Nsg6
Nsg7
Nsg8
Nsg9
(lp1382
g1349
asbsS'n706'
p1383
(i__main__
adj_list
p1384
(dp1385
g4
g1383
sg5
Nsg6
Nsg7
Nsg8
Nsg9
(lp1386
g1360
ag1361
asbsS'n1298'
p1387
(i__main__
adj_list
p1388
(dp1389
g4
g1387
sg5
Nsg6
Nsg7
Nsg8
Nsg9
(lp1390
g1344
aS'n1295'
p1391
asbsS'n735'
p1392
(i__main__
adj_list
p1393
(dp1394
g4
g1392
sg5
Nsg6
Nsg7
Nsg8
Nsg9
(lp1395
g1349
aS'n732'
p1396
asbsS'n731'
p1397
(i__main__
adj_list
p1398
(dp1399
g4
g1397
sg5
Nsg6
Nsg7
Nsg8
Nsg9
(lp1400
S'n668'
p1401
asbsS'n690'
p1402
(i__main__
adj_list
p1403
(dp1404
g4
g1402
sg5
Nsg6
Nsg7
Nsg8
Nsg9
(lp1405
S'n623'
p1406
aS'n693'
p1407
asbsS'n736'
p1408
(i__main__
adj_list
p1409
(dp1410
g4
g1408
sg5
Nsg6
Nsg7
Nsg8
Nsg9
(lp1411
S'n734'
p1412
ag736
aS'n869'
p1413
aS'n870'
p1414
aS'n932'
p1415
aS'n933'
p1416
aS'n997'
p1417
aS'n998'
p1418
aS'n1047'
p1419
aS'n1048'
p1420
aS'n1103'
p1421
aS'n1104'
p1422
aS'n1170'
p1423
aS'n1167'
p1424
aS'n1247'
p1425
aS'n1248'
p1426
aS'n1276'
p1427
asbsS'n1165'
p1428
(i__main__
adj_list
p1429
(dp1430
g4
g1428
sg5
Nsg6
Nsg7
Nsg8
Nsg9
(lp1431
S'n1149'
p1432
aS'n1184'
p1433
asbsS'n708'
p1434
(i__main__
adj_list
p1435
(dp1436
g4
g1434
sg5
Nsg6
Nsg7
Nsg8
Nsg9
(lp1437
g478
aS'n710'
p1438
asbsg154
(i__main__
adj_list
p1439
(dp1440
g4
g154
sg5
Nsg6
Nsg7
Nsg8
Nsg9
(lp1441
sbsS'n1144'
p1442
(i__main__
adj_list
p1443
(dp1444
g4
g1442
sg5
Nsg6
Nsg7
Nsg8
Nsg9
(lp1445
g89
ag90
asbsS'P[5]'
p1446
(i__main__
adj_list
p1447
(dp1448
g4
g1446
sg5
Nsg6
Nsg7
Nsg8
Nsg9
(lp1449
sbsS'n1210'
p1450
(i__main__
adj_list
p1451
(dp1452
g4
g1450
sg5
Nsg6
Nsg7
Nsg8
Nsg9
(lp1453
g1377
asbsS'n1250'
p1454
(i__main__
adj_list
p1455
(dp1456
g4
g1454
sg5
Nsg6
Nsg7
Nsg8
Nsg9
(lp1457
g191
ag788
asbsS'n694'
p1458
(i__main__
adj_list
p1459
(dp1460
g4
g1458
sg5
Nsg6
Nsg7
Nsg8
Nsg9
(lp1461
S'n627'
p1462
aS'n712'
p1463
asbsS'n1116'
p1464
(i__main__
adj_list
p1465
(dp1466
g4
g1464
sg5
Nsg6
Nsg7
Nsg8
Nsg9
(lp1467
g823
aS'n1125'
p1468
asbsS'n693'
p1469
(i__main__
adj_list
p1470
(dp1471
g4
g1469
sg5
Nsg6
Nsg7
Nsg8
Nsg9
(lp1472
g1406
aS'n711'
p1473
asbsS'n692'
p1474
(i__main__
adj_list
p1475
(dp1476
g4
g1474
sg5
Nsg6
Nsg7
Nsg8
Nsg9
(lp1477
g1406
ag1473
asbsS'n691'
p1478
(i__main__
adj_list
p1479
(dp1480
g4
g1478
sg5
Nsg6
Nsg7
Nsg8
Nsg9
(lp1481
g1406
ag1407
asbsS'n617'
p1482
(i__main__
adj_list
p1483
(dp1484
g4
g1482
sg5
Nsg6
Nsg7
Nsg8
Nsg9
(lp1485
g1208
aS'n615'
p1486
asbsS'n697'
p1487
(i__main__
adj_list
p1488
(dp1489
g4
g1487
sg5
Nsg6
Nsg7
Nsg8
Nsg9
(lp1490
g1462
aS'n694'
p1491
asbsS'n696'
p1492
(i__main__
adj_list
p1493
(dp1494
g4
g1492
sg5
Nsg6
Nsg7
Nsg8
Nsg9
(lp1495
g1462
ag1491
asbsS'n695'
p1496
(i__main__
adj_list
p1497
(dp1498
g4
g1496
sg5
Nsg6
Nsg7
Nsg8
Nsg9
(lp1499
g1462
ag1463
asbsS'\\U0/U0/IN2R[10]'
p1500
(i__main__
adj_list
p1501
(dp1502
g4
g1500
sg5
Nsg6
Nsg7
Nsg8
Nsg9
(lp1503
S'n170'
p1504
aS'n197'
p1505
ag238
aS'n289'
p1506
aS'n344'
p1507
aS'n417'
p1508
aS'n463'
p1509
ag181
aS'n585'
p1510
aS'n683'
p1511
aS'n755'
p1512
aS'n831'
p1513
aS'n893'
p1514
aS'n957'
p1515
ag860
aS'n1068'
p1516
asbsS'n699'
p1517
(i__main__
adj_list
p1518
(dp1519
g4
g1517
sg5
Nsg6
Nsg7
Nsg8
Nsg9
(lp1520
S'n612'
p1521
asbsS'n698'
p1522
(i__main__
adj_list
p1523
(dp1524
g4
g1522
sg5
Nsg6
Nsg7
Nsg8
Nsg9
(lp1525
S'n614'
p1526
asbsS'\\U0/U0/U1/IN1P[2]'
p1527
(i__main__
adj_list
p1528
(dp1529
g4
g1527
sg5
Nsg6
Nsg7
Nsg8
Nsg9
(lp1530
g934
ag52
ag935
aS'n771'
p1531
aS'n847'
p1532
aS'n890'
p1533
aS'n905'
p1534
aS'n959'
p1535
ag1224
ag1515
aS'n1058'
p1536
aS'n1069'
p1537
aS'n1119'
p1538
aS'n1146'
p1539
aS'n1168'
p1540
aS'n1186'
p1541
aS'n1209'
p1542
ag546
aS'n1210'
p1543
ag1378
aS'n1243'
p1544
ag828
aS'n1117'
p1545
ag831
aS'n1297'
p1546
ag1391
asbsS'n1204'
p1547
(i__main__
adj_list
p1548
(dp1549
g4
g1547
sg5
Nsg6
Nsg7
Nsg8
Nsg9
(lp1550
S'n1178'
p1551
asbsS'n363'
p1552
(i__main__
adj_list
p1553
(dp1554
g4
g1552
sg5
Nsg6
Nsg7
Nsg8
Nsg9
(lp1555
S'n317'
p1556
aS'n368'
p1557
asbsS'n362'
p1558
(i__main__
adj_list
p1559
(dp1560
g4
g1558
sg5
Nsg6
Nsg7
Nsg8
Nsg9
(lp1561
g1556
aS'n364'
p1562
asbsS'n361'
p1563
(i__main__
adj_list
p1564
(dp1565
g4
g1563
sg5
Nsg6
Nsg7
Nsg8
Nsg9
(lp1566
g1556
ag1562
asbsS'n360'
p1567
(i__main__
adj_list
p1568
(dp1569
g4
g1567
sg5
Nsg6
Nsg7
Nsg8
Nsg9
(lp1570
S'n315'
p1571
aS'n362'
p1572
asbsS'n367'
p1573
(i__main__
adj_list
p1574
(dp1575
g4
g1573
sg5
Nsg6
Nsg7
Nsg8
Nsg9
(lp1576
S'n320'
p1577
aS'n375'
p1578
asbsS'n366'
p1579
(i__main__
adj_list
p1580
(dp1581
g4
g1579
sg5
Nsg6
Nsg7
Nsg8
Nsg9
(lp1582
g1577
aS'n367'
p1583
asbsS'n365'
p1584
(i__main__
adj_list
p1585
(dp1586
g4
g1584
sg5
Nsg6
Nsg7
Nsg8
Nsg9
(lp1587
g1577
ag1583
asbsS'n364'
p1588
(i__main__
adj_list
p1589
(dp1590
g4
g1588
sg5
Nsg6
Nsg7
Nsg8
Nsg9
(lp1591
g1556
ag1557
asbsS'n1202'
p1592
(i__main__
adj_list
p1593
(dp1594
g4
g1592
sg5
Nsg6
Nsg7
Nsg8
Nsg9
(lp1595
S'n1199'
p1596
aS'n1177'
p1597
asbsS'n369'
p1598
(i__main__
adj_list
p1599
(dp1600
g4
g1598
sg5
Nsg6
Nsg7
Nsg8
Nsg9
(lp1601
S'n321'
p1602
aS'n371'
p1603
asbsS'n368'
p1604
(i__main__
adj_list
p1605
(dp1606
g4
g1604
sg5
Nsg6
Nsg7
Nsg8
Nsg9
(lp1607
g1577
ag1578
asbsS'n1121'
p1608
(i__main__
adj_list
p1609
(dp1610
g4
g1608
sg5
Nsg6
Nsg7
Nsg8
Nsg9
(lp1611
g27
aS'n1122'
p1612
asbsS'n1073'
p1613
(i__main__
adj_list
p1614
(dp1615
g4
g1613
sg5
Nsg6
Nsg7
Nsg8
Nsg9
(lp1616
S'n1037'
p1617
aS'n1075'
p1618
asbsS'n598'
p1619
(i__main__
adj_list
p1620
(dp1621
g4
g1619
sg5
Nsg6
Nsg7
Nsg8
Nsg9
(lp1622
S'n561'
p1623
asbsS'n599'
p1624
(i__main__
adj_list
p1625
(dp1626
g4
g1624
sg5
Nsg6
Nsg7
Nsg8
Nsg9
(lp1627
S'n598'
p1628
aS'n593'
p1629
asbsS'n1258'
p1630
(i__main__
adj_list
p1631
(dp1632
g4
g1630
sg5
Nsg6
Nsg7
Nsg8
Nsg9
(lp1633
S'n1126'
p1634
asbsS'n590'
p1635
(i__main__
adj_list
p1636
(dp1637
g4
g1635
sg5
Nsg6
Nsg7
Nsg8
Nsg9
(lp1638
S'n540'
p1639
aS'n578'
p1640
asbsS'n591'
p1641
(i__main__
adj_list
p1642
(dp1643
g4
g1641
sg5
Nsg6
Nsg7
Nsg8
Nsg9
(lp1644
g1639
ag1640
asbsS'n592'
p1645
(i__main__
adj_list
p1646
(dp1647
g4
g1645
sg5
Nsg6
Nsg7
Nsg8
Nsg9
(lp1648
S'n541'
p1649
asbsS'n593'
p1650
(i__main__
adj_list
p1651
(dp1652
g4
g1650
sg5
Nsg6
Nsg7
Nsg8
Nsg9
(lp1653
S'n563'
p1654
aS'n595'
p1655
asbsS'n594'
p1656
(i__main__
adj_list
p1657
(dp1658
g4
g1656
sg5
Nsg6
Nsg7
Nsg8
Nsg9
(lp1659
g1654
ag1655
asbsS'n595'
p1660
(i__main__
adj_list
p1661
(dp1662
g4
g1660
sg5
Nsg6
Nsg7
Nsg8
Nsg9
(lp1663
g1654
aS'n581'
p1664
asbsS'n596'
p1665
(i__main__
adj_list
p1666
(dp1667
g4
g1665
sg5
Nsg6
Nsg7
Nsg8
Nsg9
(lp1668
g1654
ag1664
asbsS'n597'
p1669
(i__main__
adj_list
p1670
(dp1671
g4
g1669
sg5
Nsg6
Nsg7
Nsg8
Nsg9
(lp1672
g1623
asbsS'n1104'
p1673
(i__main__
adj_list
p1674
(dp1675
g4
g1673
sg5
Nsg6
Nsg7
Nsg8
Nsg9
(lp1676
g915
asbsS'n510'
p1677
(i__main__
adj_list
p1678
(dp1679
g4
g1677
sg5
Nsg6
Nsg7
Nsg8
Nsg9
(lp1680
S'n438'
p1681
asbsS'n918'
p1682
(i__main__
adj_list
p1683
(dp1684
g4
g1682
sg5
Nsg6
Nsg7
Nsg8
Nsg9
(lp1685
S'n806'
p1686
aS'n920'
p1687
asbsS'n779'
p1688
(i__main__
adj_list
p1689
(dp1690
g4
g1688
sg5
Nsg6
Nsg7
Nsg8
Nsg9
(lp1691
S'n715'
p1692
aS'n780'
p1693
asbsS'n1122'
p1694
(i__main__
adj_list
p1695
(dp1696
g4
g1694
sg5
Nsg6
Nsg7
Nsg8
Nsg9
(lp1697
g27
ag28
asbsS'n914'
p1698
(i__main__
adj_list
p1699
(dp1700
g4
g1698
sg5
Nsg6
Nsg7
Nsg8
Nsg9
(lp1701
S'n861'
p1702
aS'n919'
p1703
asbsS'n915'
p1704
(i__main__
adj_list
p1705
(dp1706
g4
g1704
sg5
Nsg6
Nsg7
Nsg8
Nsg9
(lp1707
S'n802'
p1708
asbsS'n916'
p1709
(i__main__
adj_list
p1710
(dp1711
g4
g1709
sg5
Nsg6
Nsg7
Nsg8
Nsg9
(lp1712
S'n915'
p1713
aS'n804'
p1714
asbsS'n917'
p1715
(i__main__
adj_list
p1716
(dp1717
g4
g1715
sg5
Nsg6
Nsg7
Nsg8
Nsg9
(lp1718
g1686
ag1687
asbsS'n910'
p1719
(i__main__
adj_list
p1720
(dp1721
g4
g1719
sg5
Nsg6
Nsg7
Nsg8
Nsg9
(lp1722
S'n728'
p1723
aS'n911'
p1724
asbsS'n911'
p1725
(i__main__
adj_list
p1726
(dp1727
g4
g1725
sg5
Nsg6
Nsg7
Nsg8
Nsg9
(lp1728
g1702
aS'n913'
p1729
asbsS'n912'
p1730
(i__main__
adj_list
p1731
(dp1732
g4
g1730
sg5
Nsg6
Nsg7
Nsg8
Nsg9
(lp1733
g1702
ag1729
asbsS'n913'
p1734
(i__main__
adj_list
p1735
(dp1736
g4
g1734
sg5
Nsg6
Nsg7
Nsg8
Nsg9
(lp1737
g1702
ag1703
asbsS'P[10]'
p1738
(i__main__
adj_list
p1739
(dp1740
g4
g1738
sg5
Nsg6
Nsg7
Nsg8
Nsg9
(lp1741
sbsS'n415'
p1742
(i__main__
adj_list
p1743
(dp1744
g4
g1742
sg5
Nsg6
Nsg7
Nsg8
Nsg9
(lp1745
S'n358'
p1746
asbsS'n1160'
p1747
(i__main__
adj_list
p1748
(dp1749
g4
g1747
sg5
Nsg6
Nsg7
Nsg8
Nsg9
(lp1750
g1197
ag1198
asbsS'n1127'
p1751
(i__main__
adj_list
p1752
(dp1753
g4
g1751
sg5
Nsg6
Nsg7
Nsg8
Nsg9
(lp1754
S'n994'
p1755
aS'n1129'
p1756
asbsS'n882'
p1757
(i__main__
adj_list
p1758
(dp1759
g4
g1757
sg5
Nsg6
Nsg7
Nsg8
Nsg9
(lp1760
g816
ag898
asbsS'n934'
p1761
(i__main__
adj_list
p1762
(dp1763
g4
g1761
sg5
Nsg6
Nsg7
Nsg8
Nsg9
(lp1764
S'n887'
p1765
asbsS'n1126'
p1766
(i__main__
adj_list
p1767
(dp1768
g4
g1766
sg5
Nsg6
Nsg7
Nsg8
Nsg9
(lp1769
g1755
aS'n1127'
p1770
asbsS'n511'
p1771
(i__main__
adj_list
p1772
(dp1773
g4
g1771
sg5
Nsg6
Nsg7
Nsg8
Nsg9
(lp1774
S'n510'
p1775
ag1307
aS'n445'
p1776
asbsS'n627'
p1777
(i__main__
adj_list
p1778
(dp1779
g4
g1777
sg5
Nsg6
Nsg7
Nsg8
Nsg9
(lp1780
g262
aS'n628'
p1781
asbsS'n624'
p1782
(i__main__
adj_list
p1783
(dp1784
g4
g1782
sg5
Nsg6
Nsg7
Nsg8
Nsg9
(lp1785
S'n571'
p1786
aS'n633'
p1787
asbsS'n625'
p1788
(i__main__
adj_list
p1789
(dp1790
g4
g1788
sg5
Nsg6
Nsg7
Nsg8
Nsg9
(lp1791
g1786
ag1787
asbsS'n622'
p1792
(i__main__
adj_list
p1793
(dp1794
g4
g1792
sg5
Nsg6
Nsg7
Nsg8
Nsg9
(lp1795
g1786
aS'n624'
p1796
asbsS'n623'
p1797
(i__main__
adj_list
p1798
(dp1799
g4
g1797
sg5
Nsg6
Nsg7
Nsg8
Nsg9
(lp1800
g1786
ag1796
asbsS'n189'
p1801
(i__main__
adj_list
p1802
(dp1803
g4
g1801
sg5
Nsg6
Nsg7
Nsg8
Nsg9
(lp1804
S'n95'
p1805
aS'n191'
p1806
asbsS'n188'
p1807
(i__main__
adj_list
p1808
(dp1809
g4
g1807
sg5
Nsg6
Nsg7
Nsg8
Nsg9
(lp1810
S'n139'
p1811
aS'n138'
p1812
asbsS'n187'
p1813
(i__main__
adj_list
p1814
(dp1815
g4
g1813
sg5
Nsg6
Nsg7
Nsg8
Nsg9
(lp1816
g1811
ag1812
asbsS'n186'
p1817
(i__main__
adj_list
p1818
(dp1819
g4
g1817
sg5
Nsg6
Nsg7
Nsg8
Nsg9
(lp1820
g1811
aS'n187'
p1821
asbsS'n185'
p1822
(i__main__
adj_list
p1823
(dp1824
g4
g1822
sg5
Nsg6
Nsg7
Nsg8
Nsg9
(lp1825
g1811
ag1821
asbsS'n184'
p1826
(i__main__
adj_list
p1827
(dp1828
g4
g1826
sg5
Nsg6
Nsg7
Nsg8
Nsg9
(lp1829
S'n134'
p1830
asbsS'n183'
p1831
(i__main__
adj_list
p1832
(dp1833
g4
g1831
sg5
Nsg6
Nsg7
Nsg8
Nsg9
(lp1834
S'n179'
p1835
aS'n181'
p1836
asbsS'n182'
p1837
(i__main__
adj_list
p1838
(dp1839
g4
g1837
sg5
Nsg6
Nsg7
Nsg8
Nsg9
(lp1840
g1835
aS'n209'
p1841
aS'n286'
p1842
aS'n346'
p1843
ag1083
ag1086
aS'n666'
p1844
aS'n731'
p1845
ag1414
ag1415
asbsS'n181'
p1846
(i__main__
adj_list
p1847
(dp1848
g4
g1846
sg5
Nsg6
Nsg7
Nsg8
Nsg9
(lp1849
g234
aS'n174'
p1850
asbsS'n180'
p1851
(i__main__
adj_list
p1852
(dp1853
g4
g1851
sg5
Nsg6
Nsg7
Nsg8
Nsg9
(lp1854
S'n146'
p1855
asbsS'n961'
p1856
(i__main__
adj_list
p1857
(dp1858
g4
g1856
sg5
Nsg6
Nsg7
Nsg8
Nsg9
(lp1859
S'n910'
p1860
aS'n962'
p1861
asbsS'n968'
p1862
(i__main__
adj_list
p1863
(dp1864
g4
g1862
sg5
Nsg6
Nsg7
Nsg8
Nsg9
(lp1865
S'n916'
p1866
asbsS'n749'
p1867
(i__main__
adj_list
p1868
(dp1869
g4
g1867
sg5
Nsg6
Nsg7
Nsg8
Nsg9
(lp1870
S'n691'
p1871
aS'n751'
p1872
asbsS'n748'
p1873
(i__main__
adj_list
p1874
(dp1875
g4
g1873
sg5
Nsg6
Nsg7
Nsg8
Nsg9
(lp1876
g1871
ag1872
asbsS'n219'
p1877
(i__main__
adj_list
p1878
(dp1879
g4
g1877
sg5
Nsg6
Nsg7
Nsg8
Nsg9
(lp1880
S'n217'
p1881
ag624
asbsS'n218'
p1882
(i__main__
adj_list
p1883
(dp1884
g4
g1882
sg5
Nsg6
Nsg7
Nsg8
Nsg9
(lp1885
S'n189'
p1886
aS'n248'
p1887
aS'n265'
p1888
asbsS'n217'
p1889
(i__main__
adj_list
p1890
(dp1891
g4
g1889
sg5
Nsg6
Nsg7
Nsg8
Nsg9
(lp1892
g1886
asbsS'n216'
p1893
(i__main__
adj_list
p1894
(dp1895
g4
g1893
sg5
Nsg6
Nsg7
Nsg8
Nsg9
(lp1896
g1886
aS'n227'
p1897
asbsS'n215'
p1898
(i__main__
adj_list
p1899
(dp1900
g4
g1898
sg5
Nsg6
Nsg7
Nsg8
Nsg9
(lp1901
g1886
ag1897
asbsS'n214'
p1902
(i__main__
adj_list
p1903
(dp1904
g4
g1902
sg5
Nsg6
Nsg7
Nsg8
Nsg9
(lp1905
S'n210'
p1906
aS'n212'
p1907
asbsS'n213'
p1908
(i__main__
adj_list
p1909
(dp1910
g4
g1908
sg5
Nsg6
Nsg7
Nsg8
Nsg9
(lp1911
g1906
aS'n256'
p1912
aS'n341'
p1913
aS'n419'
p1914
ag1085
ag1088
aS'n738'
p1915
aS'n813'
p1916
ag1416
ag1417
asbsS'n212'
p1917
(i__main__
adj_list
p1918
(dp1919
g4
g1917
sg5
Nsg6
Nsg7
Nsg8
Nsg9
(lp1920
S'n211'
p1921
aS'n205'
p1922
asbsS'n211'
p1923
(i__main__
adj_list
p1924
(dp1925
g4
g1923
sg5
Nsg6
Nsg7
Nsg8
Nsg9
(lp1926
S'n176'
p1927
asbsS'n210'
p1928
(i__main__
adj_list
p1929
(dp1930
g4
g1928
sg5
Nsg6
Nsg7
Nsg8
Nsg9
(lp1931
g1927
asbsS'n1224'
p1932
(i__main__
adj_list
p1933
(dp1934
g4
g1932
sg5
Nsg6
Nsg7
Nsg8
Nsg9
(lp1935
g1215
asbsS'n1070'
p1936
(i__main__
adj_list
p1937
(dp1938
g4
g1936
sg5
Nsg6
Nsg7
Nsg8
Nsg9
(lp1939
S'n1021'
p1940
asbsS'n1090'
p1941
(i__main__
adj_list
p1942
(dp1943
g4
g1941
sg5
Nsg6
Nsg7
Nsg8
Nsg9
(lp1944
S'n985'
p1945
aS'n1044'
p1946
asbsS'n744'
p1947
(i__main__
adj_list
p1948
(dp1949
g4
g1947
sg5
Nsg6
Nsg7
Nsg8
Nsg9
(lp1950
g813
aS'n758'
p1951
asbsS'n1220'
p1952
(i__main__
adj_list
p1953
(dp1954
g4
g1952
sg5
Nsg6
Nsg7
Nsg8
Nsg9
(lp1955
g1214
aS'n1224'
p1956
ag450
asbsS'n944'
p1957
(i__main__
adj_list
p1958
(dp1959
g4
g1957
sg5
Nsg6
Nsg7
Nsg8
Nsg9
(lp1960
S'n897'
p1961
asbsS'n1222'
p1962
(i__main__
adj_list
p1963
(dp1964
g4
g1962
sg5
Nsg6
Nsg7
Nsg8
Nsg9
(lp1965
S'n1193'
p1966
ag799
asbsS'n732'
p1967
(i__main__
adj_list
p1968
(dp1969
g4
g1967
sg5
Nsg6
Nsg7
Nsg8
Nsg9
(lp1970
g1349
ag1350
asbsS'n1197'
p1971
(i__main__
adj_list
p1972
(dp1973
g4
g1971
sg5
Nsg6
Nsg7
Nsg8
Nsg9
(lp1974
S'n1190'
p1975
ag467
asbsS'n1028'
p1976
(i__main__
adj_list
p1977
(dp1978
g4
g1976
sg5
Nsg6
Nsg7
Nsg8
Nsg9
(lp1979
g443
aS'n1029'
p1980
asbsS'n1228'
p1981
(i__main__
adj_list
p1982
(dp1983
g4
g1981
sg5
Nsg6
Nsg7
Nsg8
Nsg9
(lp1984
S'n1197'
p1985
aS'n1274'
p1986
asbsS'n1032'
p1987
(i__main__
adj_list
p1988
(dp1989
g4
g1987
sg5
Nsg6
Nsg7
Nsg8
Nsg9
(lp1990
S'n974'
p1991
aS'n1040'
p1992
asbsS'n828'
p1993
(i__main__
adj_list
p1994
(dp1995
g4
g1993
sg5
Nsg6
Nsg7
Nsg8
Nsg9
(lp1996
S'n777'
p1997
asbsS'n829'
p1998
(i__main__
adj_list
p1999
(dp2000
g4
g1998
sg5
Nsg6
Nsg7
Nsg8
Nsg9
(lp2001
g1997
asbsS'n894'
p2002
(i__main__
adj_list
p2003
(dp2004
g4
g2002
sg5
Nsg6
Nsg7
Nsg8
Nsg9
(lp2005
S'n850'
p2006
asbsS'n984'
p2007
(i__main__
adj_list
p2008
(dp2009
g4
g2007
sg5
Nsg6
Nsg7
Nsg8
Nsg9
(lp2010
g1230
asbsS'n983'
p2011
(i__main__
adj_list
p2012
(dp2013
g4
g2011
sg5
Nsg6
Nsg7
Nsg8
Nsg9
(lp2014
S'n982'
p2015
aS'n984'
p2016
asbsS'n982'
p2017
(i__main__
adj_list
p2018
(dp2019
g4
g2017
sg5
Nsg6
Nsg7
Nsg8
Nsg9
(lp2020
S'n443'
p2021
asbsS'n981'
p2022
(i__main__
adj_list
p2023
(dp2024
g4
g2022
sg5
Nsg6
Nsg7
Nsg8
Nsg9
(lp2025
S'n922'
p2026
aS'n929'
p2027
asbsS'n980'
p2028
(i__main__
adj_list
p2029
(dp2030
g4
g2028
sg5
Nsg6
Nsg7
Nsg8
Nsg9
(lp2031
g2026
ag2027
asbsS'n820'
p2032
(i__main__
adj_list
p2033
(dp2034
g4
g2032
sg5
Nsg6
Nsg7
Nsg8
Nsg9
(lp2035
g183
ag903
asbsS'n821'
p2036
(i__main__
adj_list
p2037
(dp2038
g4
g2036
sg5
Nsg6
Nsg7
Nsg8
Nsg9
(lp2039
S'n818'
p2040
ag1203
asbsS'n822'
p2041
(i__main__
adj_list
p2042
(dp2043
g4
g2041
sg5
Nsg6
Nsg7
Nsg8
Nsg9
(lp2044
g1951
asbsS'n823'
p2045
(i__main__
adj_list
p2046
(dp2047
g4
g2045
sg5
Nsg6
Nsg7
Nsg8
Nsg9
(lp2048
S'n744'
p2049
asbsS'n824'
p2050
(i__main__
adj_list
p2051
(dp2052
g4
g2050
sg5
Nsg6
Nsg7
Nsg8
Nsg9
(lp2053
S'n763'
p2054
aS'n826'
p2055
asbsS'n825'
p2056
(i__main__
adj_list
p2057
(dp2058
g4
g2056
sg5
Nsg6
Nsg7
Nsg8
Nsg9
(lp2059
g2054
ag2055
asbsS'n826'
p2060
(i__main__
adj_list
p2061
(dp2062
g4
g2060
sg5
Nsg6
Nsg7
Nsg8
Nsg9
(lp2063
g2054
aS'n841'
p2064
asbsS'n827'
p2065
(i__main__
adj_list
p2066
(dp2067
g4
g2065
sg5
Nsg6
Nsg7
Nsg8
Nsg9
(lp2068
g2054
ag2064
asbsS'n1097'
p2069
(i__main__
adj_list
p2070
(dp2071
g4
g2069
sg5
Nsg6
Nsg7
Nsg8
Nsg9
(lp2072
S'n1095'
p2073
aS'n1139'
p2074
aS'n2'
p2075
asbsS'n963'
p2076
(i__main__
adj_list
p2077
(dp2078
g4
g2076
sg5
Nsg6
Nsg7
Nsg8
Nsg9
(lp2079
g1860
aS'n964'
p2080
asbsS'n1191'
p2081
(i__main__
adj_list
p2082
(dp2083
g4
g2081
sg5
Nsg6
Nsg7
Nsg8
Nsg9
(lp2084
S'n1097'
p2085
asbsS'n834'
p2086
(i__main__
adj_list
p2087
(dp2088
g4
g2086
sg5
Nsg6
Nsg7
Nsg8
Nsg9
(lp2089
S'n779'
p2090
aS'n836'
p2091
asbsg1309
(i__main__
adj_list
p2092
(dp2093
g4
g1309
sg5
Nsg6
Nsg7
Nsg8
Nsg9
(lp2094
sbsS'n836'
p2095
(i__main__
adj_list
p2096
(dp2097
g4
g2095
sg5
Nsg6
Nsg7
Nsg8
Nsg9
(lp2098
g2090
aS'n838'
p2099
asbsS'n132'
p2100
(i__main__
adj_list
p2101
(dp2102
g4
g2100
sg5
Nsg6
Nsg7
Nsg8
Nsg9
(lp2103
S'n124'
p2104
ag712
asbsS'n133'
p2105
(i__main__
adj_list
p2106
(dp2107
g4
g2105
sg5
Nsg6
Nsg7
Nsg8
Nsg9
(lp2108
g2104
ag712
asbsS'n130'
p2109
(i__main__
adj_list
p2110
(dp2111
g4
g2109
sg5
Nsg6
Nsg7
Nsg8
Nsg9
(lp2112
g376
aS'n230'
p2113
aS'n160'
p2114
aS'n164'
p2115
ag159
asbsS'n131'
p2116
(i__main__
adj_list
p2117
(dp2118
g4
g2116
sg5
Nsg6
Nsg7
Nsg8
Nsg9
(lp2119
g2104
aS'P[19]'
p2120
asbsS'n136'
p2121
(i__main__
adj_list
p2122
(dp2123
g4
g2121
sg5
Nsg6
Nsg7
Nsg8
Nsg9
(lp2124
S'n90'
p2125
asbsS'n137'
p2126
(i__main__
adj_list
p2127
(dp2128
g4
g2126
sg5
Nsg6
Nsg7
Nsg8
Nsg9
(lp2129
g2125
asbsS'n134'
p2130
(i__main__
adj_list
p2131
(dp2132
g4
g2130
sg5
Nsg6
Nsg7
Nsg8
Nsg9
(lp2133
g2125
aS'n94'
p2134
asbsS'n135'
p2135
(i__main__
adj_list
p2136
(dp2137
g4
g2135
sg5
Nsg6
Nsg7
Nsg8
Nsg9
(lp2138
g2125
ag2134
asbsS'n1029'
p2139
(i__main__
adj_list
p2140
(dp2141
g4
g2139
sg5
Nsg6
Nsg7
Nsg8
Nsg9
(lp2142
g1991
aS'n1032'
p2143
asbsS'n138'
p2144
(i__main__
adj_list
p2145
(dp2146
g4
g2144
sg5
Nsg6
Nsg7
Nsg8
Nsg9
(lp2147
S'n137'
p2148
ag997
ag998
asbsS'n139'
p2149
(i__main__
adj_list
p2150
(dp2151
g4
g2149
sg5
Nsg6
Nsg7
Nsg8
Nsg9
(lp2152
g996
ag1830
asbsS'n1262'
p2153
(i__main__
adj_list
p2154
(dp2155
g4
g2153
sg5
Nsg6
Nsg7
Nsg8
Nsg9
(lp2156
g1468
asbsS'n1096'
p2157
(i__main__
adj_list
p2158
(dp2159
g4
g2157
sg5
Nsg6
Nsg7
Nsg8
Nsg9
(lp2160
g2073
ag2074
ag2075
asbsS'\\U0/U0/U1/IN1N'
p2161
(i__main__
adj_list
p2162
(dp2163
g4
g2161
sg5
Nsg6
Nsg7
Nsg8
Nsg9
(lp2164
g39
ag920
aS'n73'
p2165
aS'n115'
p2166
aS'n142'
p2167
ag1504
aS'n195'
p2168
aS'n241'
p2169
aS'n293'
p2170
ag806
aS'n413'
p2171
aS'n451'
p2172
aS'n542'
p2173
aS'n596'
p2174
aS'n679'
p2175
aS'n733'
p2176
asbsS'n1013'
p2177
(i__main__
adj_list
p2178
(dp2179
g4
g2177
sg5
Nsg6
Nsg7
Nsg8
Nsg9
(lp2180
g878
asbsS'n1120'
p2181
(i__main__
adj_list
p2182
(dp2183
g4
g2181
sg5
Nsg6
Nsg7
Nsg8
Nsg9
(lp2184
g27
ag1612
asbsS'n976'
p2185
(i__main__
adj_list
p2186
(dp2187
g4
g2185
sg5
Nsg6
Nsg7
Nsg8
Nsg9
(lp2188
g1186
ag1187
asbsS'n720'
p2189
(i__main__
adj_list
p2190
(dp2191
g4
g2189
sg5
Nsg6
Nsg7
Nsg8
Nsg9
(lp2192
S'n511'
p2193
aS'n723'
p2194
asbsS'P[15]'
p2195
(i__main__
adj_list
p2196
(dp2197
g4
g2195
sg5
Nsg6
Nsg7
Nsg8
Nsg9
(lp2198
sbsS'n1045'
p2199
(i__main__
adj_list
p2200
(dp2201
g4
g2199
sg5
Nsg6
Nsg7
Nsg8
Nsg9
(lp2202
S'n648'
p2203
aS'n1091'
p2204
ag329
ag1738
asbsS'n408'
p2205
(i__main__
adj_list
p2206
(dp2207
g4
g2205
sg5
Nsg6
Nsg7
Nsg8
Nsg9
(lp2208
S'n300'
p2209
asbsS'n1265'
p2210
(i__main__
adj_list
p2211
(dp2212
g4
g2210
sg5
Nsg6
Nsg7
Nsg8
Nsg9
(lp2213
S'n1130'
p2214
aS'n1266'
p2215
asbsS'n529'
p2216
(i__main__
adj_list
p2217
(dp2218
g4
g2216
sg5
Nsg6
Nsg7
Nsg8
Nsg9
(lp2219
S'n479'
p2220
asbsS'n528'
p2221
(i__main__
adj_list
p2222
(dp2223
g4
g2221
sg5
Nsg6
Nsg7
Nsg8
Nsg9
(lp2224
S'n474'
p2225
asbsS'n1099'
p2226
(i__main__
adj_list
p2227
(dp2228
g4
g2226
sg5
Nsg6
Nsg7
Nsg8
Nsg9
(lp2229
S'n1043'
p2230
aS'n1144'
p2231
aS'n1191'
p2232
asbsS'n409'
p2233
(i__main__
adj_list
p2234
(dp2235
g4
g2233
sg5
Nsg6
Nsg7
Nsg8
Nsg9
(lp2236
g805
aS'n420'
p2237
asbsS'n1241'
p2238
(i__main__
adj_list
p2239
(dp2240
g4
g2238
sg5
Nsg6
Nsg7
Nsg8
Nsg9
(lp2241
S'n1220'
p2242
asbsS'n521'
p2243
(i__main__
adj_list
p2244
(dp2245
g4
g2243
sg5
Nsg6
Nsg7
Nsg8
Nsg9
(lp2246
S'n519'
p2247
ag2015
aS'P[11]'
p2248
asbsS'n520'
p2249
(i__main__
adj_list
p2250
(dp2251
g4
g2249
sg5
Nsg6
Nsg7
Nsg8
Nsg9
(lp2252
g2247
ag2015
ag455
ag2203
ag2248
asbsS'n523'
p2253
(i__main__
adj_list
p2254
(dp2255
g4
g2253
sg5
Nsg6
Nsg7
Nsg8
Nsg9
(lp2256
S'n489'
p2257
aS'n525'
p2258
asbsS'n522'
p2259
(i__main__
adj_list
p2260
(dp2261
g4
g2259
sg5
Nsg6
Nsg7
Nsg8
Nsg9
(lp2262
g2247
aS'n638'
p2263
aS'n795'
p2264
aS'n383'
p2265
asbsg389
(i__main__
adj_list
p2266
(dp2267
g4
g389
sg5
Nsg6
Nsg7
Nsg8
Nsg9
(lp2268
sbsS'n524'
p2269
(i__main__
adj_list
p2270
(dp2271
g4
g2269
sg5
Nsg6
Nsg7
Nsg8
Nsg9
(lp2272
g2257
ag2258
asbsS'n527'
p2273
(i__main__
adj_list
p2274
(dp2275
g4
g2273
sg5
Nsg6
Nsg7
Nsg8
Nsg9
(lp2276
S'n476'
p2277
asbsS'n526'
p2278
(i__main__
adj_list
p2279
(dp2280
g4
g2278
sg5
Nsg6
Nsg7
Nsg8
Nsg9
(lp2281
g2257
aS'n573'
p2282
asbsS'n1103'
p2283
(i__main__
adj_list
p2284
(dp2285
g4
g2283
sg5
Nsg6
Nsg7
Nsg8
Nsg9
(lp2286
S'n1050'
p2287
asbsS'n1015'
p2288
(i__main__
adj_list
p2289
(dp2290
g4
g2288
sg5
Nsg6
Nsg7
Nsg8
Nsg9
(lp2291
S'n965'
p2292
aS'n1017'
p2293
asbsS'n1133'
p2294
(i__main__
adj_list
p2295
(dp2296
g4
g2294
sg5
Nsg6
Nsg7
Nsg8
Nsg9
(lp2297
S'n1084'
p2298
aS'n1134'
p2299
asbsS'n781'
p2300
(i__main__
adj_list
p2301
(dp2302
g4
g2300
sg5
Nsg6
Nsg7
Nsg8
Nsg9
(lp2303
S'n717'
p2304
aS'n782'
p2305
asbsS'n1014'
p2306
(i__main__
adj_list
p2307
(dp2308
g4
g2306
sg5
Nsg6
Nsg7
Nsg8
Nsg9
(lp2309
g296
asbsS'n1152'
p2310
(i__main__
adj_list
p2311
(dp2312
g4
g2310
sg5
Nsg6
Nsg7
Nsg8
Nsg9
(lp2313
S'n1151'
p2314
aS'n12'
p2315
aS'n1143'
p2316
asbsS'n1246'
p2317
(i__main__
adj_list
p2318
(dp2319
g4
g2317
sg5
Nsg6
Nsg7
Nsg8
Nsg9
(lp2320
S'n1123'
p2321
asbsS'n1064'
p2322
(i__main__
adj_list
p2323
(dp2324
g4
g2322
sg5
Nsg6
Nsg7
Nsg8
Nsg9
(lp2325
S'n1030'
p2326
aS'n1066'
p2327
asbsS'n998'
p2328
(i__main__
adj_list
p2329
(dp2330
g4
g2328
sg5
Nsg6
Nsg7
Nsg8
Nsg9
(lp2331
S'n951'
p2332
asbsS'n1189'
p2333
(i__main__
adj_list
p2334
(dp2335
g4
g2333
sg5
Nsg6
Nsg7
Nsg8
Nsg9
(lp2336
S'n1155'
p2337
ag197
asbsS'n1094'
p2338
(i__main__
adj_list
p2339
(dp2340
g4
g2338
sg5
Nsg6
Nsg7
Nsg8
Nsg9
(lp2341
S'n1'
p2342
aS'n647'
p2343
asbsS'n740'
p2344
(i__main__
adj_list
p2345
(dp2346
g4
g2344
sg5
Nsg6
Nsg7
Nsg8
Nsg9
(lp2347
S'n739'
p2348
ag753
asbsS'n899'
p2349
(i__main__
adj_list
p2350
(dp2351
g4
g2349
sg5
Nsg6
Nsg7
Nsg8
Nsg9
(lp2352
S'n853'
p2353
aS'n900'
p2354
asbsS'P[16]'
p2355
(i__main__
adj_list
p2356
(dp2357
g4
g2355
sg5
Nsg6
Nsg7
Nsg8
Nsg9
(lp2358
sbsS'n1188'
p2359
(i__main__
adj_list
p2360
(dp2361
g4
g2359
sg5
Nsg6
Nsg7
Nsg8
Nsg9
(lp2362
S'n1179'
p2363
ag868
asbsS'n1102'
p2364
(i__main__
adj_list
p2365
(dp2366
g4
g2364
sg5
Nsg6
Nsg7
Nsg8
Nsg9
(lp2367
S'n1067'
p2368
asbsS'n1018'
p2369
(i__main__
adj_list
p2370
(dp2371
g4
g2369
sg5
Nsg6
Nsg7
Nsg8
Nsg9
(lp2372
g2292
aS'n1031'
p2373
asbsS'n960'
p2374
(i__main__
adj_list
p2375
(dp2376
g4
g2374
sg5
Nsg6
Nsg7
Nsg8
Nsg9
(lp2377
g1860
ag1861
asbsS'n487'
p2378
(i__main__
adj_list
p2379
(dp2380
g4
g2378
sg5
Nsg6
Nsg7
Nsg8
Nsg9
(lp2381
S'n429'
p2382
aS'n491'
p2383
asbsS'n967'
p2384
(i__main__
adj_list
p2385
(dp2386
g4
g2384
sg5
Nsg6
Nsg7
Nsg8
Nsg9
(lp2387
S'n912'
p2388
aS'n976'
p2389
asbsS'n406'
p2390
(i__main__
adj_list
p2391
(dp2392
g4
g2390
sg5
Nsg6
Nsg7
Nsg8
Nsg9
(lp2393
g404
ag433
asbsS'n1001'
p2394
(i__main__
adj_list
p2395
(dp2396
g4
g2394
sg5
Nsg6
Nsg7
Nsg8
Nsg9
(lp2397
g1418
aS'n1000'
p2398
asbsS'\\U0/U0/U1/IN1P[12]'
p2399
(i__main__
adj_list
p2400
(dp2401
g4
g2399
sg5
Nsg6
Nsg7
Nsg8
Nsg9
(lp2402
g42
aS'n183'
p2403
ag1921
ag613
aS'n255'
p2404
aS'n291'
p2405
aS'n342'
p2406
ag1506
aS'n418'
p2407
ag808
aS'n455'
p2408
ag810
aS'n669'
p2409
ag2348
aS'n812'
p2410
aS'n151'
p2411
aS'n873'
p2412
aS'n934'
p2413
aS'n996'
p2414
asbsS'n407'
p2415
(i__main__
adj_list
p2416
(dp2417
g4
g2415
sg5
Nsg6
Nsg7
Nsg8
Nsg9
(lp2418
g2209
asbsS'\\U0/U0/U1/IN1P[6]'
p2419
(i__main__
adj_list
p2420
(dp2421
g4
g2419
sg5
Nsg6
Nsg7
Nsg8
Nsg9
(lp2422
g398
ag48
ag927
aS'n475'
p2423
aS'n530'
p2424
aS'n582'
p2425
aS'n608'
p2426
aS'n685'
p2427
aS'n753'
p2428
ag1511
ag2040
aS'n832'
p2429
aS'n885'
p2430
ag817
aS'n883'
p2431
ag820
aS'n1057'
p2432
aS'n1111'
p2433
aS'n1232'
p2434
aS'n1252'
p2435
aS'n1007'
p2436
aS'n1280'
p2437
aS'n1288'
p2438
asbsS'n414'
p2439
(i__main__
adj_list
p2440
(dp2441
g4
g2439
sg5
Nsg6
Nsg7
Nsg8
Nsg9
(lp2442
g1746
asbsS'n417'
p2443
(i__main__
adj_list
p2444
(dp2445
g4
g2443
sg5
Nsg6
Nsg7
Nsg8
Nsg9
(lp2446
S'n414'
p2447
aS'n416'
p2448
asbsS'n416'
p2449
(i__main__
adj_list
p2450
(dp2451
g4
g2449
sg5
Nsg6
Nsg7
Nsg8
Nsg9
(lp2452
S'n415'
p2453
aS'n403'
p2454
asbsS'n411'
p2455
(i__main__
adj_list
p2456
(dp2457
g4
g2455
sg5
Nsg6
Nsg7
Nsg8
Nsg9
(lp2458
S'n334'
p2459
asbsS'n410'
p2460
(i__main__
adj_list
p2461
(dp2462
g4
g2460
sg5
Nsg6
Nsg7
Nsg8
Nsg9
(lp2463
g1082
aS'n409'
p2464
asbsS'n413'
p2465
(i__main__
adj_list
p2466
(dp2467
g4
g2465
sg5
Nsg6
Nsg7
Nsg8
Nsg9
(lp2468
S'n361'
p2469
aS'n388'
p2470
asbsS'n412'
p2471
(i__main__
adj_list
p2472
(dp2473
g4
g2471
sg5
Nsg6
Nsg7
Nsg8
Nsg9
(lp2474
g2469
ag2470
asbsS'n796'
p2475
(i__main__
adj_list
p2476
(dp2477
g4
g2475
sg5
Nsg6
Nsg7
Nsg8
Nsg9
(lp2478
S'n496'
p2479
asbsS'n797'
p2480
(i__main__
adj_list
p2481
(dp2482
g4
g2480
sg5
Nsg6
Nsg7
Nsg8
Nsg9
(lp2483
S'n639'
p2484
asbsS'n794'
p2485
(i__main__
adj_list
p2486
(dp2487
g4
g2485
sg5
Nsg6
Nsg7
Nsg8
Nsg9
(lp2488
g2479
ag462
asbsS'n795'
p2489
(i__main__
adj_list
p2490
(dp2491
g4
g2489
sg5
Nsg6
Nsg7
Nsg8
Nsg9
(lp2492
g2479
asbsS'n419'
p2493
(i__main__
adj_list
p2494
(dp2495
g4
g2493
sg5
Nsg6
Nsg7
Nsg8
Nsg9
(lp2496
S'n343'
p2497
asbsS'n418'
p2498
(i__main__
adj_list
p2499
(dp2500
g4
g2498
sg5
Nsg6
Nsg7
Nsg8
Nsg9
(lp2501
S'n357'
p2502
asbsS'n790'
p2503
(i__main__
adj_list
p2504
(dp2505
g4
g2503
sg5
Nsg6
Nsg7
Nsg8
Nsg9
(lp2506
S'n720'
p2507
aS'n793'
p2508
asbsS'n791'
p2509
(i__main__
adj_list
p2510
(dp2511
g4
g2509
sg5
Nsg6
Nsg7
Nsg8
Nsg9
(lp2512
g2507
ag2508
asbsS'n98'
p2513
(i__main__
adj_list
p2514
(dp2515
g4
g2513
sg5
Nsg6
Nsg7
Nsg8
Nsg9
(lp2516
S'n96'
p2517
ag376
aS'n64'
p2518
aS'n63'
p2519
asbsS'n99'
p2520
(i__main__
adj_list
p2521
(dp2522
g4
g2520
sg5
Nsg6
Nsg7
Nsg8
Nsg9
(lp2523
g2517
ag2518
asbsS'n558'
p2524
(i__main__
adj_list
p2525
(dp2526
g4
g2524
sg5
Nsg6
Nsg7
Nsg8
Nsg9
(lp2527
g1270
aS'n560'
p2528
asbsS'n559'
p2529
(i__main__
adj_list
p2530
(dp2531
g4
g2529
sg5
Nsg6
Nsg7
Nsg8
Nsg9
(lp2532
g1270
ag2528
asbsS'n645'
p2533
(i__main__
adj_list
p2534
(dp2535
g4
g2533
sg5
Nsg6
Nsg7
Nsg8
Nsg9
(lp2536
g2263
ag2265
asbsS'n92'
p2537
(i__main__
adj_list
p2538
(dp2539
g4
g2537
sg5
Nsg6
Nsg7
Nsg8
Nsg9
(lp2540
S'n91'
p2541
asbsS'n93'
p2542
(i__main__
adj_list
p2543
(dp2544
g4
g2542
sg5
Nsg6
Nsg7
Nsg8
Nsg9
(lp2545
g100
asbsS'n90'
p2546
(i__main__
adj_list
p2547
(dp2548
g4
g2546
sg5
Nsg6
Nsg7
Nsg8
Nsg9
(lp2549
g1030
ag100
ag420
asbsS'n91'
p2550
(i__main__
adj_list
p2551
(dp2552
g4
g2550
sg5
Nsg6
Nsg7
Nsg8
Nsg9
(lp2553
g154
asbsS'n96'
p2554
(i__main__
adj_list
p2555
(dp2556
g4
g2554
sg5
Nsg6
Nsg7
Nsg8
Nsg9
(lp2557
g143
asbsS'n97'
p2558
(i__main__
adj_list
p2559
(dp2560
g4
g2558
sg5
Nsg6
Nsg7
Nsg8
Nsg9
(lp2561
g2517
asbsS'\\U0/U0/IN2R[13]'
p2562
(i__main__
adj_list
p2563
(dp2564
g4
g2562
sg5
Nsg6
Nsg7
Nsg8
Nsg9
(lp2565
g2165
aS'n118'
p2566
ag233
ag2403
aS'n214'
p2567
aS'n260'
p2568
aS'n307'
p2569
ag175
aS'n402'
p2570
ag2423
aS'n532'
p2571
aS'n613'
p2572
aS'n703'
p2573
ag1531
ag856
aS'n904'
p2574
asbsS'n95'
p2575
(i__main__
adj_list
p2576
(dp2577
g4
g2575
sg5
Nsg6
Nsg7
Nsg8
Nsg9
(lp2578
g1066
ag101
ag102
asbsS'P[9]'
p2579
(i__main__
adj_list
p2580
(dp2581
g4
g2579
sg5
Nsg6
Nsg7
Nsg8
Nsg9
(lp2582
sbsS'\\U0/U0/IN2R[7]'
p2583
(i__main__
adj_list
p2584
(dp2585
g4
g2583
sg5
Nsg6
Nsg7
Nsg8
Nsg9
(lp2586
g2170
aS'n337'
p2587
ag242
ag2408
aS'n549'
p2588
aS'n605'
p2589
aS'n674'
p2590
ag184
aS'n821'
p2591
ag2431
aS'n947'
p2592
aS'n1012'
p2593
aS'n1061'
p2594
ag1545
aS'n1245'
p2595
ag873
asbsS'n1074'
p2596
(i__main__
adj_list
p2597
(dp2598
g4
g2596
sg5
Nsg6
Nsg7
Nsg8
Nsg9
(lp2599
g1617
ag1618
asbsS'n1183'
p2600
(i__main__
adj_list
p2601
(dp2602
g4
g2600
sg5
Nsg6
Nsg7
Nsg8
Nsg9
(lp2603
S'n1180'
p2604
asbsS'n1179'
p2605
(i__main__
adj_list
p2606
(dp2607
g4
g2605
sg5
Nsg6
Nsg7
Nsg8
Nsg9
(lp2608
g1198
aS'n1160'
p2609
asbsS'n742'
p2610
(i__main__
adj_list
p2611
(dp2612
g4
g2610
sg5
Nsg6
Nsg7
Nsg8
Nsg9
(lp2613
S'n687'
p2614
asbsS'n640'
p2615
(i__main__
adj_list
p2616
(dp2617
g4
g2615
sg5
Nsg6
Nsg7
Nsg8
Nsg9
(lp2618
g1307
asbsS'n991'
p2619
(i__main__
adj_list
p2620
(dp2621
g4
g2619
sg5
Nsg6
Nsg7
Nsg8
Nsg9
(lp2622
S'n930'
p2623
asbsS'n641'
p2624
(i__main__
adj_list
p2625
(dp2626
g4
g2624
sg5
Nsg6
Nsg7
Nsg8
Nsg9
(lp2627
S'n640'
p2628
aS'n509'
p2629
aS'n644'
p2630
asbsS'n1199'
p2631
(i__main__
adj_list
p2632
(dp2633
g4
g2631
sg5
Nsg6
Nsg7
Nsg8
Nsg9
(lp2634
S'n1195'
p2635
aS'n1173'
p2636
asbsS'n389'
p2637
(i__main__
adj_list
p2638
(dp2639
g4
g2637
sg5
Nsg6
Nsg7
Nsg8
Nsg9
(lp2640
g497
asbsS'n388'
p2641
(i__main__
adj_list
p2642
(dp2643
g4
g2641
sg5
Nsg6
Nsg7
Nsg8
Nsg9
(lp2644
g497
aS'n431'
p2645
asbsS'n385'
p2646
(i__main__
adj_list
p2647
(dp2648
g4
g2646
sg5
Nsg6
Nsg7
Nsg8
Nsg9
(lp2649
S'n167'
p2650
ag1305
ag674
aS'n497'
p2651
asbsS'n384'
p2652
(i__main__
adj_list
p2653
(dp2654
g4
g2652
sg5
Nsg6
Nsg7
Nsg8
Nsg9
(lp2655
S'n377'
p2656
aS'n166'
p2657
asbsS'n387'
p2658
(i__main__
adj_list
p2659
(dp2660
g4
g2658
sg5
Nsg6
Nsg7
Nsg8
Nsg9
(lp2661
g497
ag2645
asbsS'n386'
p2662
(i__main__
adj_list
p2663
(dp2664
g4
g2662
sg5
Nsg6
Nsg7
Nsg8
Nsg9
(lp2665
S'n283'
p2666
aS'n437'
p2667
ag1330
ag1305
aS'P[20]'
p2668
asbsS'n381'
p2669
(i__main__
adj_list
p2670
(dp2671
g4
g2669
sg5
Nsg6
Nsg7
Nsg8
Nsg9
(lp2672
S'n379'
p2673
ag1323
aS'n386'
p2674
asbsS'n380'
p2675
(i__main__
adj_list
p2676
(dp2677
g4
g2675
sg5
Nsg6
Nsg7
Nsg8
Nsg9
(lp2678
g686
ag1323
ag2674
asbsS'n383'
p2679
(i__main__
adj_list
p2680
(dp2681
g4
g2679
sg5
Nsg6
Nsg7
Nsg8
Nsg9
(lp2682
g2656
aS'P[14]'
p2683
asbsS'n382'
p2684
(i__main__
adj_list
p2685
(dp2686
g4
g2684
sg5
Nsg6
Nsg7
Nsg8
Nsg9
(lp2687
g2656
ag2657
asbsS'n1077'
p2688
(i__main__
adj_list
p2689
(dp2690
g4
g2688
sg5
Nsg6
Nsg7
Nsg8
Nsg9
(lp2691
g319
ag1236
asbsS'n1069'
p2692
(i__main__
adj_list
p2693
(dp2694
g4
g2692
sg5
Nsg6
Nsg7
Nsg8
Nsg9
(lp2695
g1225
asbsS'n1212'
p2696
(i__main__
adj_list
p2697
(dp2698
g4
g2696
sg5
Nsg6
Nsg7
Nsg8
Nsg9
(lp2699
S'n1198'
p2700
asbsS'n977'
p2701
(i__main__
adj_list
p2702
(dp2703
g4
g2701
sg5
Nsg6
Nsg7
Nsg8
Nsg9
(lp2704
S'n921'
p2705
aS'n978'
p2706
asbsS'n1138'
p2707
(i__main__
adj_list
p2708
(dp2709
g4
g2707
sg5
Nsg6
Nsg7
Nsg8
Nsg9
(lp2710
g2343
ag2074
asbsS'n855'
p2711
(i__main__
adj_list
p2712
(dp2713
g4
g2711
sg5
Nsg6
Nsg7
Nsg8
Nsg9
(lp2714
S'n791'
p2715
aS'n856'
p2716
asbsS'n253'
p2717
(i__main__
adj_list
p2718
(dp2719
g4
g2717
sg5
Nsg6
Nsg7
Nsg8
Nsg9
(lp2720
S'n251'
p2721
aS'n285'
p2722
aS'n270'
p2723
asbsS'n252'
p2724
(i__main__
adj_list
p2725
(dp2726
g4
g2724
sg5
Nsg6
Nsg7
Nsg8
Nsg9
(lp2727
g634
aS'n218'
p2728
asbsS'n251'
p2729
(i__main__
adj_list
p2730
(dp2731
g4
g2729
sg5
Nsg6
Nsg7
Nsg8
Nsg9
(lp2732
g634
asbsS'n250'
p2733
(i__main__
adj_list
p2734
(dp2735
g4
g2733
sg5
Nsg6
Nsg7
Nsg8
Nsg9
(lp2736
g634
ag635
asbsS'n257'
p2737
(i__main__
adj_list
p2738
(dp2739
g4
g2737
sg5
Nsg6
Nsg7
Nsg8
Nsg9
(lp2740
S'n207'
p2741
asbsS'n256'
p2742
(i__main__
adj_list
p2743
(dp2744
g4
g2742
sg5
Nsg6
Nsg7
Nsg8
Nsg9
(lp2745
g1907
asbsS'n255'
p2746
(i__main__
adj_list
p2747
(dp2748
g4
g2746
sg5
Nsg6
Nsg7
Nsg8
Nsg9
(lp2749
g1922
asbsS'n254'
p2750
(i__main__
adj_list
p2751
(dp2752
g4
g2750
sg5
Nsg6
Nsg7
Nsg8
Nsg9
(lp2753
g2721
ag2722
ag2723
asbsS'n709'
p2754
(i__main__
adj_list
p2755
(dp2756
g4
g2754
sg5
Nsg6
Nsg7
Nsg8
Nsg9
(lp2757
g478
ag1438
asbsS'n648'
p2758
(i__main__
adj_list
p2759
(dp2760
g4
g2758
sg5
Nsg6
Nsg7
Nsg8
Nsg9
(lp2761
S'n645'
p2762
ag438
aS'n794'
p2763
asbsS'n259'
p2764
(i__main__
adj_list
p2765
(dp2766
g4
g2764
sg5
Nsg6
Nsg7
Nsg8
Nsg9
(lp2767
S'n258'
p2768
aS'n261'
p2769
asbsS'n258'
p2770
(i__main__
adj_list
p2771
(dp2772
g4
g2770
sg5
Nsg6
Nsg7
Nsg8
Nsg9
(lp2773
g2741
asbsS'n501'
p2774
(i__main__
adj_list
p2775
(dp2776
g4
g2774
sg5
Nsg6
Nsg7
Nsg8
Nsg9
(lp2777
g1324
ag1681
aS'n504'
p2778
asbsS'n856'
p2779
(i__main__
adj_list
p2780
(dp2781
g4
g2779
sg5
Nsg6
Nsg7
Nsg8
Nsg9
(lp2782
g2715
aS'n862'
p2783
asbsS'n649'
p2784
(i__main__
adj_list
p2785
(dp2786
g4
g2784
sg5
Nsg6
Nsg7
Nsg8
Nsg9
(lp2787
g2762
ag2763
asbsS'n1062'
p2788
(i__main__
adj_list
p2789
(dp2790
g4
g2788
sg5
Nsg6
Nsg7
Nsg8
Nsg9
(lp2791
S'n1025'
p2792
asbsS'n318'
p2793
(i__main__
adj_list
p2794
(dp2795
g4
g2793
sg5
Nsg6
Nsg7
Nsg8
Nsg9
(lp2796
S'n275'
p2797
aS'n322'
p2798
asbsS'n319'
p2799
(i__main__
adj_list
p2800
(dp2801
g4
g2799
sg5
Nsg6
Nsg7
Nsg8
Nsg9
(lp2802
g2797
ag2798
asbsS'n1187'
p2803
(i__main__
adj_list
p2804
(dp2805
g4
g2803
sg5
Nsg6
Nsg7
Nsg8
Nsg9
(lp2806
g2363
asbsS'n1063'
p2807
(i__main__
adj_list
p2808
(dp2809
g4
g2807
sg5
Nsg6
Nsg7
Nsg8
Nsg9
(lp2810
S'n1011'
p2811
asbsS'n312'
p2812
(i__main__
adj_list
p2813
(dp2814
g4
g2812
sg5
Nsg6
Nsg7
Nsg8
Nsg9
(lp2815
S'n276'
p2816
aS'n314'
p2817
asbsS'n313'
p2818
(i__main__
adj_list
p2819
(dp2820
g4
g2818
sg5
Nsg6
Nsg7
Nsg8
Nsg9
(lp2821
g2816
ag2817
asbsS'n310'
p2822
(i__main__
adj_list
p2823
(dp2824
g4
g2822
sg5
Nsg6
Nsg7
Nsg8
Nsg9
(lp2825
S'n272'
p2826
aS'n309'
p2827
asbsS'n311'
p2828
(i__main__
adj_list
p2829
(dp2830
g4
g2828
sg5
Nsg6
Nsg7
Nsg8
Nsg9
(lp2831
g2826
ag2827
asbsS'n316'
p2832
(i__main__
adj_list
p2833
(dp2834
g4
g2832
sg5
Nsg6
Nsg7
Nsg8
Nsg9
(lp2835
g2797
aS'n318'
p2836
asbsS'\\U0/U0/U1/IN1P[9]'
p2837
(i__main__
adj_list
p2838
(dp2839
g4
g2837
sg5
Nsg6
Nsg7
Nsg8
Nsg9
(lp2840
g923
ag45
ag924
ag2569
aS'n350'
p2841
aS'n397'
p2842
ag2447
aS'n465'
p2843
aS'n553'
p2844
ag1509
aS'n586'
p2845
ag813
ag2590
ag815
aS'n879'
p2846
aS'n940'
p2847
aS'n1002'
p2848
aS'n604'
p2849
aS'n1051'
p2850
aS'n1105'
p2851
aS'n1246'
p2852
asbsS'n314'
p2853
(i__main__
adj_list
p2854
(dp2855
g4
g2853
sg5
Nsg6
Nsg7
Nsg8
Nsg9
(lp2856
g2816
aS'n316'
p2857
asbsS'n315'
p2858
(i__main__
adj_list
p2859
(dp2860
g4
g2858
sg5
Nsg6
Nsg7
Nsg8
Nsg9
(lp2861
g2816
ag2857
asbsS'n1268'
p2862
(i__main__
adj_list
p2863
(dp2864
g4
g2862
sg5
Nsg6
Nsg7
Nsg8
Nsg9
(lp2865
g2299
asbsS'n1084'
p2866
(i__main__
adj_list
p2867
(dp2868
g4
g2866
sg5
Nsg6
Nsg7
Nsg8
Nsg9
(lp2869
S'n988'
p2870
aS'n1086'
p2871
asbsS'n1061'
p2872
(i__main__
adj_list
p2873
(dp2874
g4
g2872
sg5
Nsg6
Nsg7
Nsg8
Nsg9
(lp2875
g1536
aS'n1060'
p2876
asbsS'n1052'
p2877
(i__main__
adj_list
p2878
(dp2879
g4
g2877
sg5
Nsg6
Nsg7
Nsg8
Nsg9
(lp2880
S'n1015'
p2881
asbsS'n926'
p2882
(i__main__
adj_list
p2883
(dp2884
g4
g2882
sg5
Nsg6
Nsg7
Nsg8
Nsg9
(lp2885
g1097
asbsS'n1260'
p2886
(i__main__
adj_list
p2887
(dp2888
g4
g2886
sg5
Nsg6
Nsg7
Nsg8
Nsg9
(lp2889
g828
ag1366
asbsS'n1066'
p2890
(i__main__
adj_list
p2891
(dp2892
g4
g2890
sg5
Nsg6
Nsg7
Nsg8
Nsg9
(lp2893
g2326
aS'n1078'
p2894
asbsS'n886'
p2895
(i__main__
adj_list
p2896
(dp2897
g4
g2895
sg5
Nsg6
Nsg7
Nsg8
Nsg9
(lp2898
S'n839'
p2899
aS'n888'
p2900
asbsS'n1263'
p2901
(i__main__
adj_list
p2902
(dp2903
g4
g2901
sg5
Nsg6
Nsg7
Nsg8
Nsg9
(lp2904
S'n1116'
p2905
asbsS'n1264'
p2906
(i__main__
adj_list
p2907
(dp2908
g4
g2906
sg5
Nsg6
Nsg7
Nsg8
Nsg9
(lp2909
g2214
ag2215
asbsS'n1086'
p2910
(i__main__
adj_list
p2911
(dp2912
g4
g2910
sg5
Nsg6
Nsg7
Nsg8
Nsg9
(lp2913
g2870
aS'n1090'
p2914
asbsS'n1266'
p2915
(i__main__
adj_list
p2916
(dp2917
g4
g2915
sg5
Nsg6
Nsg7
Nsg8
Nsg9
(lp2918
g2214
aS'n1223'
p2919
asbsS'n1067'
p2920
(i__main__
adj_list
p2921
(dp2922
g4
g2920
sg5
Nsg6
Nsg7
Nsg8
Nsg9
(lp2923
g2326
ag2894
asbsS'n898'
p2924
(i__main__
adj_list
p2925
(dp2926
g4
g2924
sg5
Nsg6
Nsg7
Nsg8
Nsg9
(lp2927
g2353
ag2354
asbsS'n1087'
p2928
(i__main__
adj_list
p2929
(dp2930
g4
g2928
sg5
Nsg6
Nsg7
Nsg8
Nsg9
(lp2931
g2870
ag2914
asbsS'n574'
p2932
(i__main__
adj_list
p2933
(dp2934
g4
g2932
sg5
Nsg6
Nsg7
Nsg8
Nsg9
(lp2935
S'n441'
p2936
aS'n577'
p2937
asbsS'n1109'
p2938
(i__main__
adj_list
p2939
(dp2940
g4
g2938
sg5
Nsg6
Nsg7
Nsg8
Nsg9
(lp2941
S'n1056'
p2942
asbsS'n1139'
p2943
(i__main__
adj_list
p2944
(dp2945
g4
g2943
sg5
Nsg6
Nsg7
Nsg8
Nsg9
(lp2946
g2343
asbsS'n1080'
p2947
(i__main__
adj_list
p2948
(dp2949
g4
g2947
sg5
Nsg6
Nsg7
Nsg8
Nsg9
(lp2950
S'n995'
p2951
aS'n1083'
p2952
asbsS'n1054'
p2953
(i__main__
adj_list
p2954
(dp2955
g4
g2953
sg5
Nsg6
Nsg7
Nsg8
Nsg9
(lp2956
S'n1028'
p2957
asbsS'n1065'
p2958
(i__main__
adj_list
p2959
(dp2960
g4
g2958
sg5
Nsg6
Nsg7
Nsg8
Nsg9
(lp2961
g2326
ag2327
asbsS'n1194'
p2962
(i__main__
adj_list
p2963
(dp2964
g4
g2962
sg5
Nsg6
Nsg7
Nsg8
Nsg9
(lp2965
g197
ag198
asbsS'n509'
p2966
(i__main__
adj_list
p2967
(dp2968
g4
g2966
sg5
Nsg6
Nsg7
Nsg8
Nsg9
(lp2969
g1306
aS'n444'
p2970
asbsS'n1049'
p2971
(i__main__
adj_list
p2972
(dp2973
g4
g2971
sg5
Nsg6
Nsg7
Nsg8
Nsg9
(lp2974
S'n1016'
p2975
asbsS'n176'
p2976
(i__main__
adj_list
p2977
(dp2978
g4
g2976
sg5
Nsg6
Nsg7
Nsg8
Nsg9
(lp2979
S'n155'
p2980
aS'n173'
p2981
asbsS'n177'
p2982
(i__main__
adj_list
p2983
(dp2984
g4
g2982
sg5
Nsg6
Nsg7
Nsg8
Nsg9
(lp2985
S'n144'
p2986
asbsS'n174'
p2987
(i__main__
adj_list
p2988
(dp2989
g4
g2987
sg5
Nsg6
Nsg7
Nsg8
Nsg9
(lp2990
g2980
aS'n185'
p2991
asbsS'n175'
p2992
(i__main__
adj_list
p2993
(dp2994
g4
g2992
sg5
Nsg6
Nsg7
Nsg8
Nsg9
(lp2995
g2980
ag2981
asbsS'n172'
p2996
(i__main__
adj_list
p2997
(dp2998
g4
g2996
sg5
Nsg6
Nsg7
Nsg8
Nsg9
(lp2999
S'n156'
p3000
aS'n140'
p3001
asbsS'n173'
p3002
(i__main__
adj_list
p3003
(dp3004
g4
g3002
sg5
Nsg6
Nsg7
Nsg8
Nsg9
(lp3005
g2980
ag2991
asbsS'n170'
p3006
(i__main__
adj_list
p3007
(dp3008
g4
g3006
sg5
Nsg6
Nsg7
Nsg8
Nsg9
(lp3009
S'n141'
p3010
aS'n172'
p3011
asbsS'n171'
p3012
(i__main__
adj_list
p3013
(dp3014
g4
g3012
sg5
Nsg6
Nsg7
Nsg8
Nsg9
(lp3015
g3000
ag3001
asbsS'n1083'
p3016
(i__main__
adj_list
p3017
(dp3018
g4
g3016
sg5
Nsg6
Nsg7
Nsg8
Nsg9
(lp3019
g2951
aS'n1087'
p3020
asbsS'n952'
p3021
(i__main__
adj_list
p3022
(dp3023
g4
g3021
sg5
Nsg6
Nsg7
Nsg8
Nsg9
(lp3024
g335
ag568
asbsS'n178'
p3025
(i__main__
adj_list
p3026
(dp3027
g4
g3025
sg5
Nsg6
Nsg7
Nsg8
Nsg9
(lp3028
S'n150'
p3029
asbsS'n179'
p3030
(i__main__
adj_list
p3031
(dp3032
g4
g3030
sg5
Nsg6
Nsg7
Nsg8
Nsg9
(lp3033
g1855
asbsS'n721'
p3034
(i__main__
adj_list
p3035
(dp3036
g4
g3034
sg5
Nsg6
Nsg7
Nsg8
Nsg9
(lp3037
g2193
ag2194
asbsS'n775'
p3038
(i__main__
adj_list
p3039
(dp3040
g4
g3038
sg5
Nsg6
Nsg7
Nsg8
Nsg9
(lp3041
g277
ag278
asbsS'n776'
p3042
(i__main__
adj_list
p3043
(dp3044
g4
g3042
sg5
Nsg6
Nsg7
Nsg8
Nsg9
(lp3045
g1692
aS'n778'
p3046
asbsS'n777'
p3047
(i__main__
adj_list
p3048
(dp3049
g4
g3047
sg5
Nsg6
Nsg7
Nsg8
Nsg9
(lp3050
g1692
ag3046
asbsS'n679'
p3051
(i__main__
adj_list
p3052
(dp3053
g4
g3051
sg5
Nsg6
Nsg7
Nsg8
Nsg9
(lp3054
g975
ag306
asbsS'n678'
p3055
(i__main__
adj_list
p3056
(dp3057
g4
g3055
sg5
Nsg6
Nsg7
Nsg8
Nsg9
(lp3058
S'n599'
p3059
asbsS'n772'
p3060
(i__main__
adj_list
p3061
(dp3062
g4
g3060
sg5
Nsg6
Nsg7
Nsg8
Nsg9
(lp3063
g277
aS'n788'
p3064
asbsS'n773'
p3065
(i__main__
adj_list
p3066
(dp3067
g4
g3065
sg5
Nsg6
Nsg7
Nsg8
Nsg9
(lp3068
g277
ag3064
asbsS'n675'
p3069
(i__main__
adj_list
p3070
(dp3071
g4
g3069
sg5
Nsg6
Nsg7
Nsg8
Nsg9
(lp3072
S'n588'
p3073
asbsS'n674'
p3074
(i__main__
adj_list
p3075
(dp3076
g4
g3074
sg5
Nsg6
Nsg7
Nsg8
Nsg9
(lp3077
g1089
aS'n672'
p3078
asbsS'n677'
p3079
(i__main__
adj_list
p3080
(dp3081
g4
g3079
sg5
Nsg6
Nsg7
Nsg8
Nsg9
(lp3082
g1629
asbsS'n676'
p3083
(i__main__
adj_list
p3084
(dp3085
g4
g3083
sg5
Nsg6
Nsg7
Nsg8
Nsg9
(lp3086
S'n603'
p3087
asbsS'n671'
p3088
(i__main__
adj_list
p3089
(dp3090
g4
g3088
sg5
Nsg6
Nsg7
Nsg8
Nsg9
(lp3091
S'n589'
p3092
asbsS'n432'
p3093
(i__main__
adj_list
p3094
(dp3095
g4
g3093
sg5
Nsg6
Nsg7
Nsg8
Nsg9
(lp3096
S'n328'
p3097
aS'n435'
p3098
asbsS'n673'
p3099
(i__main__
adj_list
p3100
(dp3101
g4
g3099
sg5
Nsg6
Nsg7
Nsg8
Nsg9
(lp3102
g1089
ag1091
aS'n876'
p3103
aS'n938'
p3104
ag1420
ag1421
asbsS'n672'
p3105
(i__main__
adj_list
p3106
(dp3107
g4
g3105
sg5
Nsg6
Nsg7
Nsg8
Nsg9
(lp3108
g811
aS'n686'
p3109
asbsS'n49'
p3110
(i__main__
adj_list
p3111
(dp3112
g4
g3110
sg5
Nsg6
Nsg7
Nsg8
Nsg9
(lp3113
g119
asbsS'n48'
p3114
(i__main__
adj_list
p3115
(dp3116
g4
g3114
sg5
Nsg6
Nsg7
Nsg8
Nsg9
(lp3117
S'n23'
p3118
aS'n53'
p3119
asbsS'n1050'
p3120
(i__main__
adj_list
p3121
(dp3122
g4
g3120
sg5
Nsg6
Nsg7
Nsg8
Nsg9
(lp3123
S'n1049'
p3124
ag2368
asbsS'n956'
p3125
(i__main__
adj_list
p3126
(dp3127
g4
g3125
sg5
Nsg6
Nsg7
Nsg8
Nsg9
(lp3128
S'n955'
p3129
aS'n969'
p3130
asbsS'n41'
p3131
(i__main__
adj_list
p3132
(dp3133
g4
g3131
sg5
Nsg6
Nsg7
Nsg8
Nsg9
(lp3134
S'n22'
p3135
asbsS'n40'
p3136
(i__main__
adj_list
p3137
(dp3138
g4
g3136
sg5
Nsg6
Nsg7
Nsg8
Nsg9
(lp3139
S'P[30]'
p3140
asbsS'n43'
p3141
(i__main__
adj_list
p3142
(dp3143
g4
g3141
sg5
Nsg6
Nsg7
Nsg8
Nsg9
(lp3144
S'n24'
p3145
aS'n44'
p3146
asbsS'n42'
p3147
(i__main__
adj_list
p3148
(dp3149
g4
g3147
sg5
Nsg6
Nsg7
Nsg8
Nsg9
(lp3150
g3145
ag3146
asbsS'n45'
p3151
(i__main__
adj_list
p3152
(dp3153
g4
g3151
sg5
Nsg6
Nsg7
Nsg8
Nsg9
(lp3154
g3145
aS'n26'
p3155
asbsS'n44'
p3156
(i__main__
adj_list
p3157
(dp3158
g4
g3156
sg5
Nsg6
Nsg7
Nsg8
Nsg9
(lp3159
g3145
ag3155
asbsS'n47'
p3160
(i__main__
adj_list
p3161
(dp3162
g4
g3160
sg5
Nsg6
Nsg7
Nsg8
Nsg9
(lp3163
g3118
aS'n67'
p3164
aS'n51'
p3165
asbsS'n46'
p3166
(i__main__
adj_list
p3167
(dp3168
g4
g3166
sg5
Nsg6
Nsg7
Nsg8
Nsg9
(lp3169
g3118
ag3164
ag3165
asbsS'n877'
p3170
(i__main__
adj_list
p3171
(dp3172
g4
g3170
sg5
Nsg6
Nsg7
Nsg8
Nsg9
(lp3173
S'n837'
p3174
asbsS'n876'
p3175
(i__main__
adj_list
p3176
(dp3177
g4
g3175
sg5
Nsg6
Nsg7
Nsg8
Nsg9
(lp3178
g3174
asbsS'n875'
p3179
(i__main__
adj_list
p3180
(dp3181
g4
g3179
sg5
Nsg6
Nsg7
Nsg8
Nsg9
(lp3182
g768
asbsS'n874'
p3183
(i__main__
adj_list
p3184
(dp3185
g4
g3183
sg5
Nsg6
Nsg7
Nsg8
Nsg9
(lp3186
g774
asbsS'n873'
p3187
(i__main__
adj_list
p3188
(dp3189
g4
g3187
sg5
Nsg6
Nsg7
Nsg8
Nsg9
(lp3190
g1414
aS'n872'
p3191
asbsS'n872'
p3192
(i__main__
adj_list
p3193
(dp3194
g4
g3192
sg5
Nsg6
Nsg7
Nsg8
Nsg9
(lp3195
g251
aS'n889'
p3196
asbsS'n871'
p3197
(i__main__
adj_list
p3198
(dp3199
g4
g3197
sg5
Nsg6
Nsg7
Nsg8
Nsg9
(lp3200
S'n825'
p3201
asbsS'n870'
p3202
(i__main__
adj_list
p3203
(dp3204
g4
g3202
sg5
Nsg6
Nsg7
Nsg8
Nsg9
(lp3205
g3201
asbsS'n1192'
p3206
(i__main__
adj_list
p3207
(dp3208
g4
g3206
sg5
Nsg6
Nsg7
Nsg8
Nsg9
(lp3209
S'n1098'
p3210
ag449
asbsS'n668'
p3211
(i__main__
adj_list
p3212
(dp3213
g4
g3211
sg5
Nsg6
Nsg7
Nsg8
Nsg9
(lp3214
g245
ag883
asbsS'n1217'
p3215
(i__main__
adj_list
p3216
(dp3217
g4
g3215
sg5
Nsg6
Nsg7
Nsg8
Nsg9
(lp3218
S'n1211'
p3219
aS'n1214'
p3220
asbsS'n1216'
p3221
(i__main__
adj_list
p3222
(dp3223
g4
g3221
sg5
Nsg6
Nsg7
Nsg8
Nsg9
(lp3224
g3219
asbsS'n1036'
p3225
(i__main__
adj_list
p3226
(dp3227
g4
g3225
sg5
Nsg6
Nsg7
Nsg8
Nsg9
(lp3228
S'n977'
p3229
aS'n1038'
p3230
asbsS'n893'
p3231
(i__main__
adj_list
p3232
(dp3233
g4
g3231
sg5
Nsg6
Nsg7
Nsg8
Nsg9
(lp3234
g1533
aS'n892'
p3235
asbsS'n879'
p3236
(i__main__
adj_list
p3237
(dp3238
g4
g3236
sg5
Nsg6
Nsg7
Nsg8
Nsg9
(lp3239
g3103
aS'n878'
p3240
asbsS'\\U0/U0/IN2R[8]'
p3241
(i__main__
adj_list
p3242
(dp3243
g4
g3241
sg5
Nsg6
Nsg7
Nsg8
Nsg9
(lp3244
g2169
aS'n292'
p3245
ag240
aS'n742'
p3246
aS'n338'
p3247
ag2040
aS'n823'
p3248
aS'n880'
p3249
ag2430
ag295
aS'n949'
p3250
aS'n1009'
p3251
aS'n1014'
p3252
ag1536
aS'n1063'
p3253
ag861
ag1538
aS'n1258'
p3254
ag872
aS'n1294'
p3255
asbsS'n923'
p3256
(i__main__
adj_list
p3257
(dp3258
g4
g3256
sg5
Nsg6
Nsg7
Nsg8
Nsg9
(lp3259
S'n799'
p3260
aS'n867'
p3261
asbsg2668
(i__main__
adj_list
p3262
(dp3263
g4
g2668
sg5
Nsg6
Nsg7
Nsg8
Nsg9
(lp3264
sbsS'n620'
p3265
(i__main__
adj_list
p3266
(dp3267
g4
g3265
sg5
Nsg6
Nsg7
Nsg8
Nsg9
(lp3268
S'n569'
p3269
aS'n622'
p3270
asbsS'n778'
p3271
(i__main__
adj_list
p3272
(dp3273
g4
g3271
sg5
Nsg6
Nsg7
Nsg8
Nsg9
(lp3274
g1692
ag1693
asbsS'n621'
p3275
(i__main__
adj_list
p3276
(dp3277
g4
g3275
sg5
Nsg6
Nsg7
Nsg8
Nsg9
(lp3278
g3269
ag3270
asbsS'n670'
p3279
(i__main__
adj_list
p3280
(dp3281
g4
g3279
sg5
Nsg6
Nsg7
Nsg8
Nsg9
(lp3282
g3092
asbsS'n974'
p3283
(i__main__
adj_list
p3284
(dp3285
g4
g3283
sg5
Nsg6
Nsg7
Nsg8
Nsg9
(lp3286
g1186
aS'n975'
p3287
asbsS'n1135'
p3288
(i__main__
adj_list
p3289
(dp3290
g4
g3288
sg5
Nsg6
Nsg7
Nsg8
Nsg9
(lp3291
S'n1085'
p3292
aS'n1137'
p3293
asbsS'n897'
p3294
(i__main__
adj_list
p3295
(dp3296
g4
g3294
sg5
Nsg6
Nsg7
Nsg8
Nsg9
(lp3297
g2353
aS'n898'
p3298
asbsS'n1193'
p3299
(i__main__
adj_list
p3300
(dp3301
g4
g3299
sg5
Nsg6
Nsg7
Nsg8
Nsg9
(lp3302
g3210
ag449
asbsS'\\U0/U0/U1/IN1P[5]'
p3303
(i__main__
adj_list
p3304
(dp3305
g4
g3303
sg5
Nsg6
Nsg7
Nsg8
Nsg9
(lp3306
g928
ag49
ag929
ag2571
aS'n611'
p3307
aS'n680'
p3308
aS'n698'
p3309
aS'n757'
p3310
aS'n829'
p3311
ag1512
ag3249
aS'n894'
p3312
ag3250
ag819
ag2592
aS'n1054'
p3313
ag822
aS'n1109'
p3314
aS'n1204'
p3315
aS'n1235'
p3316
aS'n1113'
p3317
aS'n1255'
p3318
aS'n1277'
p3319
aS'n1281'
p3320
aS'n1286'
p3321
aS'n1289'
p3322
asbsS'n1098'
p3323
(i__main__
adj_list
p3324
(dp3325
g4
g3323
sg5
Nsg6
Nsg7
Nsg8
Nsg9
(lp3326
g2230
ag2231
ag2232
asbsS'n896'
p3327
(i__main__
adj_list
p3328
(dp3329
g4
g3327
sg5
Nsg6
Nsg7
Nsg8
Nsg9
(lp3330
g2353
ag3298
asbsS'n922'
p3331
(i__main__
adj_list
p3332
(dp3333
g4
g3331
sg5
Nsg6
Nsg7
Nsg8
Nsg9
(lp3334
g3260
aS'n924'
p3335
asbsS'n1149'
p3336
(i__main__
adj_list
p3337
(dp3338
g4
g3336
sg5
Nsg6
Nsg7
Nsg8
Nsg9
(lp3339
S'n13'
p3340
aS'n1152'
p3341
asbsS'n959'
p3342
(i__main__
adj_list
p3343
(dp3344
g4
g3342
sg5
Nsg6
Nsg7
Nsg8
Nsg9
(lp3345
g3235
asbsS'n741'
p3346
(i__main__
adj_list
p3347
(dp3348
g4
g3346
sg5
Nsg6
Nsg7
Nsg8
Nsg9
(lp3349
g1915
ag748
asbsS'n702'
p3350
(i__main__
adj_list
p3351
(dp3352
g4
g3350
sg5
Nsg6
Nsg7
Nsg8
Nsg9
(lp3353
S'n701'
p3354
aS'n695'
p3355
asbsS'n459'
p3356
(i__main__
adj_list
p3357
(dp3358
g4
g3356
sg5
Nsg6
Nsg7
Nsg8
Nsg9
(lp3359
g485
asbsS'n458'
p3360
(i__main__
adj_list
p3361
(dp3362
g4
g3360
sg5
Nsg6
Nsg7
Nsg8
Nsg9
(lp3363
g503
asbsS'n512'
p3364
(i__main__
adj_list
p3365
(dp3366
g4
g3364
sg5
Nsg6
Nsg7
Nsg8
Nsg9
(lp3367
g1775
ag1307
ag1776
asbsS'n513'
p3368
(i__main__
adj_list
p3369
(dp3370
g4
g3368
sg5
Nsg6
Nsg7
Nsg8
Nsg9
(lp3371
S'n330'
p3372
aS'n651'
p3373
aS'n797'
p3374
aS'n800'
p3375
asbsS'n514'
p3376
(i__main__
adj_list
p3377
(dp3378
g4
g3376
sg5
Nsg6
Nsg7
Nsg8
Nsg9
(lp3379
S'n507'
p3380
asbsS'n515'
p3381
(i__main__
adj_list
p3382
(dp3383
g4
g3381
sg5
Nsg6
Nsg7
Nsg8
Nsg9
(lp3384
g3380
aS'n643'
p3385
ag1318
ag1103
ag2683
asbsS'n516'
p3386
(i__main__
adj_list
p3387
(dp3388
g4
g3386
sg5
Nsg6
Nsg7
Nsg8
Nsg9
(lp3389
g3380
ag1076
asbsS'n517'
p3390
(i__main__
adj_list
p3391
(dp3392
g4
g3390
sg5
Nsg6
Nsg7
Nsg8
Nsg9
(lp3393
S'n514'
p3394
ag168
ag2021
asbsS'n451'
p3395
(i__main__
adj_list
p3396
(dp3397
g4
g3395
sg5
Nsg6
Nsg7
Nsg8
Nsg9
(lp3398
S'n422'
p3399
aS'n390'
p3400
asbsS'n450'
p3401
(i__main__
adj_list
p3402
(dp3403
g4
g3401
sg5
Nsg6
Nsg7
Nsg8
Nsg9
(lp3404
g3399
ag3400
asbsS'n453'
p3405
(i__main__
adj_list
p3406
(dp3407
g4
g3405
sg5
Nsg6
Nsg7
Nsg8
Nsg9
(lp3408
S'n421'
p3409
asbsS'n452'
p3410
(i__main__
adj_list
p3411
(dp3412
g4
g3410
sg5
Nsg6
Nsg7
Nsg8
Nsg9
(lp3413
g3409
asbsS'n455'
p3414
(i__main__
adj_list
p3415
(dp3416
g4
g3414
sg5
Nsg6
Nsg7
Nsg8
Nsg9
(lp3417
g1083
ag74
asbsS'n454'
p3418
(i__main__
adj_list
p3419
(dp3420
g4
g3418
sg5
Nsg6
Nsg7
Nsg8
Nsg9
(lp3421
g241
ag59
asbsS'n457'
p3422
(i__main__
adj_list
p3423
(dp3424
g4
g3422
sg5
Nsg6
Nsg7
Nsg8
Nsg9
(lp3425
g2464
asbsS'n456'
p3426
(i__main__
adj_list
p3427
(dp3428
g4
g3426
sg5
Nsg6
Nsg7
Nsg8
Nsg9
(lp3429
g2237
asbsS'n1286'
p3430
(i__main__
adj_list
p3431
(dp3432
g4
g3430
sg5
Nsg6
Nsg7
Nsg8
Nsg9
(lp3433
S'n1279'
p3434
asbsS'n969'
p3435
(i__main__
adj_list
p3436
(dp3437
g4
g3435
sg5
Nsg6
Nsg7
Nsg8
Nsg9
(lp3438
S'n805'
p3439
aS'n971'
p3440
asbsS'n1284'
p3441
(i__main__
adj_list
p3442
(dp3443
g4
g3441
sg5
Nsg6
Nsg7
Nsg8
Nsg9
(lp3444
g1986
aS'n1228'
p3445
asbsS'n1285'
p3446
(i__main__
adj_list
p3447
(dp3448
g4
g3446
sg5
Nsg6
Nsg7
Nsg8
Nsg9
(lp3449
g284
asbsS'n1282'
p3450
(i__main__
adj_list
p3451
(dp3452
g4
g3450
sg5
Nsg6
Nsg7
Nsg8
Nsg9
(lp3453
g226
asbsS'n1283'
p3454
(i__main__
adj_list
p3455
(dp3456
g4
g3454
sg5
Nsg6
Nsg7
Nsg8
Nsg9
(lp3457
g1986
ag3445
asbsS'n1280'
p3458
(i__main__
adj_list
p3459
(dp3460
g4
g3458
sg5
Nsg6
Nsg7
Nsg8
Nsg9
(lp3461
g3319
ag3434
asbsS'n1281'
p3462
(i__main__
adj_list
p3463
(dp3464
g4
g3462
sg5
Nsg6
Nsg7
Nsg8
Nsg9
(lp3465
S'n1264'
p3466
asbsS'n999'
p3467
(i__main__
adj_list
p3468
(dp3469
g4
g3467
sg5
Nsg6
Nsg7
Nsg8
Nsg9
(lp3470
g2332
asbsS'n798'
p3471
(i__main__
adj_list
p3472
(dp3473
g4
g3471
sg5
Nsg6
Nsg7
Nsg8
Nsg9
(lp3474
g2484
ag1096
aS'n515'
p3475
asbsS'n1288'
p3476
(i__main__
adj_list
p3477
(dp3478
g4
g3476
sg5
Nsg6
Nsg7
Nsg8
Nsg9
(lp3479
S'n1284'
p3480
asbsS'n1137'
p3481
(i__main__
adj_list
p3482
(dp3483
g4
g3481
sg5
Nsg6
Nsg7
Nsg8
Nsg9
(lp3484
g3292
aS'n1088'
p3485
asbsS'n962'
p3486
(i__main__
adj_list
p3487
(dp3488
g4
g3486
sg5
Nsg6
Nsg7
Nsg8
Nsg9
(lp3489
g1860
ag2080
asbsS'n883'
p3490
(i__main__
adj_list
p3491
(dp3492
g4
g3490
sg5
Nsg6
Nsg7
Nsg8
Nsg9
(lp3493
g3249
ag888
asbsS'\\U0/U0/U1/IN1P[11]'
p3494
(i__main__
adj_list
p3495
(dp3496
g4
g3494
sg5
Nsg6
Nsg7
Nsg8
Nsg9
(lp3497
g43
ag2567
ag2768
aS'n302'
p3498
ag2453
ag1507
aS'n464'
p3499
ag809
ag2588
ag812
aS'n741'
p3500
ag773
aS'n874'
p3501
aS'n182'
p3502
aS'n936'
p3503
aS'n999'
p3504
aS'n1046'
p3505
asbsS'P[0]'
p3506
(i__main__
adj_list
p3507
(dp3508
g4
g3506
sg5
Nsg6
Nsg7
Nsg8
Nsg9
(lp3509
sbsS'\\U0/U0/IN2R[3]'
p3510
(i__main__
adj_list
p3511
(dp3512
g4
g3510
sg5
Nsg6
Nsg7
Nsg8
Nsg9
(lp3513
g2173
ag1628
ag245
aS'n677'
p3514
ag247
ag2348
ag2410
ag773
ag3501
ag289
aS'n937'
p3515
ag2847
ag2848
ag187
ag188
aS'n1055'
p3516
aS'n1108'
p3517
ag2433
ag3341
aS'n1166'
p3518
ag867
ag868
ag1543
ag1378
aS'n1238'
p3519
aS'n1241'
p3520
ag2435
ag3318
ag3320
aS'n1291'
p3521
aS'n1296'
p3522
asbsg353
(i__main__
adj_list
p3523
(dp3524
g4
g353
sg5
Nsg6
Nsg7
Nsg8
Nsg9
(lp3525
sbsS'n1237'
p3526
(i__main__
adj_list
p3527
(dp3528
g4
g3526
sg5
Nsg6
Nsg7
Nsg8
Nsg9
(lp3529
S'n1205'
p3530
asbsS'n1113'
p3531
(i__main__
adj_list
p3532
(dp3533
g4
g3531
sg5
Nsg6
Nsg7
Nsg8
Nsg9
(lp3534
S'n1110'
p3535
aS'n1112'
p3536
asbsS'n717'
p3537
(i__main__
adj_list
p3538
(dp3539
g4
g3537
sg5
Nsg6
Nsg7
Nsg8
Nsg9
(lp3540
g653
aS'n719'
p3541
asbsS'n714'
p3542
(i__main__
adj_list
p3543
(dp3544
g4
g3542
sg5
Nsg6
Nsg7
Nsg8
Nsg9
(lp3545
S'n635'
p3546
aS'n716'
p3547
asbsS'n493'
p3548
(i__main__
adj_list
p3549
(dp3550
g4
g3548
sg5
Nsg6
Nsg7
Nsg8
Nsg9
(lp3551
g68
ag69
asbsS'n745'
p3552
(i__main__
adj_list
p3553
(dp3554
g4
g3552
sg5
Nsg6
Nsg7
Nsg8
Nsg9
(lp3555
g3246
ag2049
asbsS'n715'
p3556
(i__main__
adj_list
p3557
(dp3558
g4
g3556
sg5
Nsg6
Nsg7
Nsg8
Nsg9
(lp3559
g3546
ag3547
asbsS'n661'
p3560
(i__main__
adj_list
p3561
(dp3562
g4
g3560
sg5
Nsg6
Nsg7
Nsg8
Nsg9
(lp3563
g438
aS'n520'
p3564
asbsS'\\U0/U0/IN2R[2]'
p3565
(i__main__
adj_list
p3566
(dp3567
g4
g3565
sg5
Nsg6
Nsg7
Nsg8
Nsg9
(lp3568
g2174
aS'n737'
p3569
ag249
ag865
ag866
ag1542
ag546
aS'n1237'
p3570
aS'n1234'
p3571
aS'n736'
p3572
ag3319
ag3321
aS'n1290'
p3573
aS'n1287'
p3574
asbsS'n712'
p3575
(i__main__
adj_list
p3576
(dp3577
g4
g3575
sg5
Nsg6
Nsg7
Nsg8
Nsg9
(lp3578
g3546
aS'n714'
p3579
asbsS'n1012'
p3580
(i__main__
adj_list
p3581
(dp3582
g4
g3580
sg5
Nsg6
Nsg7
Nsg8
Nsg9
(lp3583
g3251
ag2811
asbsS'n747'
p3584
(i__main__
adj_list
p3585
(dp3586
g4
g3584
sg5
Nsg6
Nsg7
Nsg8
Nsg9
(lp3587
g3078
asbsS'n713'
p3588
(i__main__
adj_list
p3589
(dp3590
g4
g3588
sg5
Nsg6
Nsg7
Nsg8
Nsg9
(lp3591
g3546
ag3579
asbsS'n525'
p3592
(i__main__
adj_list
p3593
(dp3594
g4
g3592
sg5
Nsg6
Nsg7
Nsg8
Nsg9
(lp3595
g2257
ag2282
asbsS'n1034'
p3596
(i__main__
adj_list
p3597
(dp3598
g4
g3596
sg5
Nsg6
Nsg7
Nsg8
Nsg9
(lp3599
g3229
aS'n1036'
p3600
asbsS'n792'
p3601
(i__main__
adj_list
p3602
(dp3603
g4
g3601
sg5
Nsg6
Nsg7
Nsg8
Nsg9
(lp3604
g2507
aS'n725'
p3605
asbsS'n746'
p3606
(i__main__
adj_list
p3607
(dp3608
g4
g3606
sg5
Nsg6
Nsg7
Nsg8
Nsg9
(lp3609
g3109
asbsS'n428'
p3610
(i__main__
adj_list
p3611
(dp3612
g4
g3610
sg5
Nsg6
Nsg7
Nsg8
Nsg9
(lp3613
S'n373'
p3614
aS'n430'
p3615
asbsS'n429'
p3616
(i__main__
adj_list
p3617
(dp3618
g4
g3616
sg5
Nsg6
Nsg7
Nsg8
Nsg9
(lp3619
g3614
ag3615
asbsS'n358'
p3620
(i__main__
adj_list
p3621
(dp3622
g4
g3620
sg5
Nsg6
Nsg7
Nsg8
Nsg9
(lp3623
g1571
aS'n359'
p3624
asbsS'n359'
p3625
(i__main__
adj_list
p3626
(dp3627
g4
g3625
sg5
Nsg6
Nsg7
Nsg8
Nsg9
(lp3628
g1571
ag1572
asbsS'n356'
p3629
(i__main__
adj_list
p3630
(dp3631
g4
g3629
sg5
Nsg6
Nsg7
Nsg8
Nsg9
(lp3632
S'n313'
p3633
aS'n354'
p3634
asbsS'n357'
p3635
(i__main__
adj_list
p3636
(dp3637
g4
g3635
sg5
Nsg6
Nsg7
Nsg8
Nsg9
(lp3638
g1571
ag3624
asbsS'n354'
p3639
(i__main__
adj_list
p3640
(dp3641
g4
g3639
sg5
Nsg6
Nsg7
Nsg8
Nsg9
(lp3642
g3633
aS'n369'
p3643
asbsS'n355'
p3644
(i__main__
adj_list
p3645
(dp3646
g4
g3644
sg5
Nsg6
Nsg7
Nsg8
Nsg9
(lp3647
g3633
ag3634
asbsS'n352'
p3648
(i__main__
adj_list
p3649
(dp3650
g4
g3648
sg5
Nsg6
Nsg7
Nsg8
Nsg9
(lp3651
g925
ag530
asbsS'n353'
p3652
(i__main__
adj_list
p3653
(dp3654
g4
g3652
sg5
Nsg6
Nsg7
Nsg8
Nsg9
(lp3655
g3633
ag3643
asbsS'n350'
p3656
(i__main__
adj_list
p3657
(dp3658
g4
g3656
sg5
Nsg6
Nsg7
Nsg8
Nsg9
(lp3659
S'n311'
p3660
asbsS'n351'
p3661
(i__main__
adj_list
p3662
(dp3663
g4
g3661
sg5
Nsg6
Nsg7
Nsg8
Nsg9
(lp3664
g2841
ag513
asbsS'n589'
p3665
(i__main__
adj_list
p3666
(dp3667
g4
g3665
sg5
Nsg6
Nsg7
Nsg8
Nsg9
(lp3668
g1639
aS'n590'
p3669
asbsS'n588'
p3670
(i__main__
adj_list
p3671
(dp3672
g4
g3670
sg5
Nsg6
Nsg7
Nsg8
Nsg9
(lp3673
g1639
ag3669
asbsg2683
(i__main__
adj_list
p3674
(dp3675
g4
g2683
sg5
Nsg6
Nsg7
Nsg8
Nsg9
(lp3676
sbsS'n743'
p3677
(i__main__
adj_list
p3678
(dp3679
g4
g3677
sg5
Nsg6
Nsg7
Nsg8
Nsg9
(lp3680
g2614
asbsS'n583'
p3681
(i__main__
adj_list
p3682
(dp3683
g4
g3681
sg5
Nsg6
Nsg7
Nsg8
Nsg9
(lp3684
S'n538'
p3685
asbsS'n582'
p3686
(i__main__
adj_list
p3687
(dp3688
g4
g3686
sg5
Nsg6
Nsg7
Nsg8
Nsg9
(lp3689
g3685
asbsS'n581'
p3690
(i__main__
adj_list
p3691
(dp3692
g4
g3690
sg5
Nsg6
Nsg7
Nsg8
Nsg9
(lp3693
S'n524'
p3694
aS'n625'
p3695
asbsS'n580'
p3696
(i__main__
adj_list
p3697
(dp3698
g4
g3696
sg5
Nsg6
Nsg7
Nsg8
Nsg9
(lp3699
g3694
ag3695
asbsS'n587'
p3700
(i__main__
adj_list
p3701
(dp3702
g4
g3700
sg5
Nsg6
Nsg7
Nsg8
Nsg9
(lp3703
S'n554'
p3704
asbsS'n586'
p3705
(i__main__
adj_list
p3706
(dp3707
g4
g3705
sg5
Nsg6
Nsg7
Nsg8
Nsg9
(lp3708
S'n537'
p3709
asbsS'n585'
p3710
(i__main__
adj_list
p3711
(dp3712
g4
g3710
sg5
Nsg6
Nsg7
Nsg8
Nsg9
(lp3713
g2425
aS'n584'
p3714
asbsS'n584'
p3715
(i__main__
adj_list
p3716
(dp3717
g4
g3715
sg5
Nsg6
Nsg7
Nsg8
Nsg9
(lp3718
g180
aS'n618'
p3719
asbsS'n793'
p3720
(i__main__
adj_list
p3721
(dp3722
g4
g3720
sg5
Nsg6
Nsg7
Nsg8
Nsg9
(lp3723
g2507
ag3605
asbsS'n1125'
p3724
(i__main__
adj_list
p3725
(dp3726
g4
g3724
sg5
Nsg6
Nsg7
Nsg8
Nsg9
(lp3727
g1755
ag1770
asbsS'n909'
p3728
(i__main__
adj_list
p3729
(dp3730
g4
g3728
sg5
Nsg6
Nsg7
Nsg8
Nsg9
(lp3731
g1723
ag1724
asbsS'n908'
p3732
(i__main__
adj_list
p3733
(dp3734
g4
g3732
sg5
Nsg6
Nsg7
Nsg8
Nsg9
(lp3735
g1723
aS'n909'
p3736
asbsS'n907'
p3737
(i__main__
adj_list
p3738
(dp3739
g4
g3737
sg5
Nsg6
Nsg7
Nsg8
Nsg9
(lp3740
g1723
ag3736
asbsS'n906'
p3741
(i__main__
adj_list
p3742
(dp3743
g4
g3741
sg5
Nsg6
Nsg7
Nsg8
Nsg9
(lp3744
S'n848'
p3745
asbsS'n905'
p3746
(i__main__
adj_list
p3747
(dp3748
g4
g3746
sg5
Nsg6
Nsg7
Nsg8
Nsg9
(lp3749
S'n789'
p3750
asbsS'n904'
p3751
(i__main__
adj_list
p3752
(dp3753
g4
g3751
sg5
Nsg6
Nsg7
Nsg8
Nsg9
(lp3754
g855
ag1866
asbsS'n903'
p3755
(i__main__
adj_list
p3756
(dp3757
g4
g3755
sg5
Nsg6
Nsg7
Nsg8
Nsg9
(lp3758
S'n855'
p3759
aS'n914'
p3760
asbsS'n902'
p3761
(i__main__
adj_list
p3762
(dp3763
g4
g3761
sg5
Nsg6
Nsg7
Nsg8
Nsg9
(lp3764
g3759
ag3760
asbsS'n901'
p3765
(i__main__
adj_list
p3766
(dp3767
g4
g3765
sg5
Nsg6
Nsg7
Nsg8
Nsg9
(lp3768
g3759
aS'n903'
p3769
asbsS'n900'
p3770
(i__main__
adj_list
p3771
(dp3772
g4
g3770
sg5
Nsg6
Nsg7
Nsg8
Nsg9
(lp3773
g3759
ag3769
asbsS'n1215'
p3774
(i__main__
adj_list
p3775
(dp3776
g4
g3774
sg5
Nsg6
Nsg7
Nsg8
Nsg9
(lp3777
S'n1213'
p3778
asbsS'n1008'
p3779
(i__main__
adj_list
p3780
(dp3781
g4
g3779
sg5
Nsg6
Nsg7
Nsg8
Nsg9
(lp3782
S'n1004'
p3783
ag11
asbsS'n1233'
p3784
(i__main__
adj_list
p3785
(dp3786
g4
g3784
sg5
Nsg6
Nsg7
Nsg8
Nsg9
(lp3787
g1176
ag2438
asbsS'n929'
p3788
(i__main__
adj_list
p3789
(dp3790
g4
g3788
sg5
Nsg6
Nsg7
Nsg8
Nsg9
(lp3791
S'n866'
p3792
aS'n928'
p3793
asbsS'n1214'
p3794
(i__main__
adj_list
p3795
(dp3796
g4
g3794
sg5
Nsg6
Nsg7
Nsg8
Nsg9
(lp3797
g3778
asbsS'n767'
p3798
(i__main__
adj_list
p3799
(dp3800
g4
g3798
sg5
Nsg6
Nsg7
Nsg8
Nsg9
(lp3801
g1247
asbsS'n1235'
p3802
(i__main__
adj_list
p3803
(dp3804
g4
g3802
sg5
Nsg6
Nsg7
Nsg8
Nsg9
(lp3805
S'n1231'
p3806
asbsS'n719'
p3807
(i__main__
adj_list
p3808
(dp3809
g4
g3807
sg5
Nsg6
Nsg7
Nsg8
Nsg9
(lp3810
g653
ag654
asbsS'P[24]'
p3811
(i__main__
adj_list
p3812
(dp3813
g4
g3811
sg5
Nsg6
Nsg7
Nsg8
Nsg9
(lp3814
sbsS'n631'
p3815
(i__main__
adj_list
p3816
(dp3817
g4
g3815
sg5
Nsg6
Nsg7
Nsg8
Nsg9
(lp3818
S'n574'
p3819
aS'n632'
p3820
asbsS'n630'
p3821
(i__main__
adj_list
p3822
(dp3823
g4
g3821
sg5
Nsg6
Nsg7
Nsg8
Nsg9
(lp3824
g3819
ag3820
asbsS'n633'
p3825
(i__main__
adj_list
p3826
(dp3827
g4
g3825
sg5
Nsg6
Nsg7
Nsg8
Nsg9
(lp3828
g3819
aS'n636'
p3829
asbsS'n632'
p3830
(i__main__
adj_list
p3831
(dp3832
g4
g3830
sg5
Nsg6
Nsg7
Nsg8
Nsg9
(lp3833
g3819
ag3829
asbsS'n635'
p3834
(i__main__
adj_list
p3835
(dp3836
g4
g3834
sg5
Nsg6
Nsg7
Nsg8
Nsg9
(lp3837
S'n502'
p3838
aS'n637'
p3839
asbsS'n634'
p3840
(i__main__
adj_list
p3841
(dp3842
g4
g3840
sg5
Nsg6
Nsg7
Nsg8
Nsg9
(lp3843
g3838
ag3839
asbsS'n637'
p3844
(i__main__
adj_list
p3845
(dp3846
g4
g3844
sg5
Nsg6
Nsg7
Nsg8
Nsg9
(lp3847
g3838
aS'n512'
p3848
asbsS'n636'
p3849
(i__main__
adj_list
p3850
(dp3851
g4
g3849
sg5
Nsg6
Nsg7
Nsg8
Nsg9
(lp3852
g3838
ag3848
asbsS'n639'
p3853
(i__main__
adj_list
p3854
(dp3855
g4
g3853
sg5
Nsg6
Nsg7
Nsg8
Nsg9
(lp3856
g675
aS'n796'
p3857
asbsS'n638'
p3858
(i__main__
adj_list
p3859
(dp3860
g4
g3858
sg5
Nsg6
Nsg7
Nsg8
Nsg9
(lp3861
g2657
asbsS'n1223'
p3862
(i__main__
adj_list
p3863
(dp3864
g4
g3862
sg5
Nsg6
Nsg7
Nsg8
Nsg9
(lp3865
g1966
ag799
asbsS'n610'
p3866
(i__main__
adj_list
p3867
(dp3868
g4
g3866
sg5
Nsg6
Nsg7
Nsg8
Nsg9
(lp3869
S'n536'
p3870
asbsS'n1027'
p3871
(i__main__
adj_list
p3872
(dp3873
g4
g3871
sg5
Nsg6
Nsg7
Nsg8
Nsg9
(lp3874
g443
ag1980
asbsS'n738'
p3875
(i__main__
adj_list
p3876
(dp3877
g4
g3875
sg5
Nsg6
Nsg7
Nsg8
Nsg9
(lp3878
S'n689'
p3879
asbsS'n739'
p3880
(i__main__
adj_list
p3881
(dp3882
g4
g3880
sg5
Nsg6
Nsg7
Nsg8
Nsg9
(lp3883
g3879
asbsS'n228'
p3884
(i__main__
adj_list
p3885
(dp3886
g4
g3884
sg5
Nsg6
Nsg7
Nsg8
Nsg9
(lp3887
S'n129'
p3888
aS'n163'
p3889
asbsS'n229'
p3890
(i__main__
adj_list
p3891
(dp3892
g4
g3890
sg5
Nsg6
Nsg7
Nsg8
Nsg9
(lp3893
g358
asbsS'n979'
p3894
(i__main__
adj_list
p3895
(dp3896
g4
g3894
sg5
Nsg6
Nsg7
Nsg8
Nsg9
(lp3897
g2026
aS'n981'
p3898
asbsS'n222'
p3899
(i__main__
adj_list
p3900
(dp3901
g4
g3899
sg5
Nsg6
Nsg7
Nsg8
Nsg9
(lp3902
S'n190'
p3903
aS'n223'
p3904
asbsS'n223'
p3905
(i__main__
adj_list
p3906
(dp3907
g4
g3905
sg5
Nsg6
Nsg7
Nsg8
Nsg9
(lp3908
g3903
aS'n219'
p3909
asbsS'n220'
p3910
(i__main__
adj_list
p3911
(dp3912
g4
g3910
sg5
Nsg6
Nsg7
Nsg8
Nsg9
(lp3913
g1881
ag629
ag1888
asbsS'n221'
p3914
(i__main__
adj_list
p3915
(dp3916
g4
g3914
sg5
Nsg6
Nsg7
Nsg8
Nsg9
(lp3917
g3903
ag3904
asbsS'n226'
p3918
(i__main__
adj_list
p3919
(dp3920
g4
g3918
sg5
Nsg6
Nsg7
Nsg8
Nsg9
(lp3921
g3888
aS'n228'
p3922
asbsS'n227'
p3923
(i__main__
adj_list
p3924
(dp3925
g4
g3923
sg5
Nsg6
Nsg7
Nsg8
Nsg9
(lp3926
g3888
ag3889
asbsS'n224'
p3927
(i__main__
adj_list
p3928
(dp3929
g4
g3927
sg5
Nsg6
Nsg7
Nsg8
Nsg9
(lp3930
g3903
ag3909
asbsS'n225'
p3931
(i__main__
adj_list
p3932
(dp3933
g4
g3931
sg5
Nsg6
Nsg7
Nsg8
Nsg9
(lp3934
g3888
ag3922
asbsS'n1251'
p3935
(i__main__
adj_list
p3936
(dp3937
g4
g3935
sg5
Nsg6
Nsg7
Nsg8
Nsg9
(lp3938
g1426
aS'n1250'
p3939
asbsS'n370'
p3940
(i__main__
adj_list
p3941
(dp3942
g4
g3940
sg5
Nsg6
Nsg7
Nsg8
Nsg9
(lp3943
g1602
ag1603
asbsS'n1253'
p3944
(i__main__
adj_list
p3945
(dp3946
g4
g3944
sg5
Nsg6
Nsg7
Nsg8
Nsg9
(lp3947
g3536
asbsS'n1252'
p3948
(i__main__
adj_list
p3949
(dp3950
g4
g3948
sg5
Nsg6
Nsg7
Nsg8
Nsg9
(lp3951
S'n1120'
p3952
asbsS'n1255'
p3953
(i__main__
adj_list
p3954
(dp3955
g4
g3953
sg5
Nsg6
Nsg7
Nsg8
Nsg9
(lp3956
S'n1128'
p3957
asbsS'n1254'
p3958
(i__main__
adj_list
p3959
(dp3960
g4
g3958
sg5
Nsg6
Nsg7
Nsg8
Nsg9
(lp3961
g3957
asbsS'P[4]'
p3962
(i__main__
adj_list
p3963
(dp3964
g4
g3962
sg5
Nsg6
Nsg7
Nsg8
Nsg9
(lp3965
sbsS'n371'
p3966
(i__main__
adj_list
p3967
(dp3968
g4
g3966
sg5
Nsg6
Nsg7
Nsg8
Nsg9
(lp3969
g1602
aS'n365'
p3970
asbsS'n965'
p3971
(i__main__
adj_list
p3972
(dp3973
g4
g3971
sg5
Nsg6
Nsg7
Nsg8
Nsg9
(lp3974
g2388
aS'n966'
p3975
asbsS'n771'
p3976
(i__main__
adj_list
p3977
(dp3978
g4
g3976
sg5
Nsg6
Nsg7
Nsg8
Nsg9
(lp3979
g853
aS'n770'
p3980
asbsS'\\U0/U0/IN2R[4]'
p3981
(i__main__
adj_list
p3982
(dp3983
g4
g3981
sg5
Nsg6
Nsg7
Nsg8
Nsg9
(lp3984
g2172
aS'n544'
p3985
ag246
ag2409
ag3500
aS'n817'
p3986
ag2846
ag186
aS'n1008'
p3987
ag2432
aS'n1188'
p3988
ag869
ag1544
ag3317
aS'n1257'
p3989
aS'n1298'
p3990
asbsS'n1039'
p3991
(i__main__
adj_list
p3992
(dp3993
g4
g3991
sg5
Nsg6
Nsg7
Nsg8
Nsg9
(lp3994
g16
aS'n1041'
p3995
asbsS'n1229'
p3996
(i__main__
adj_list
p3997
(dp3998
g4
g3996
sg5
Nsg6
Nsg7
Nsg8
Nsg9
(lp3999
g1985
ag1986
asbsS'n1231'
p4000
(i__main__
adj_list
p4001
(dp4002
g4
g4000
sg5
Nsg6
Nsg7
Nsg8
Nsg9
(lp4003
S'n1227'
p4004
aS'n1200'
p4005
asbsS'n495'
p4006
(i__main__
adj_list
p4007
(dp4008
g4
g4006
sg5
Nsg6
Nsg7
Nsg8
Nsg9
(lp4009
g68
aS'n488'
p4010
asbsS'n839'
p4011
(i__main__
adj_list
p4012
(dp4013
g4
g4011
sg5
Nsg6
Nsg7
Nsg8
Nsg9
(lp4014
S'n781'
p4015
aS'n840'
p4016
asbsS'n838'
p4017
(i__main__
adj_list
p4018
(dp4019
g4
g4017
sg5
Nsg6
Nsg7
Nsg8
Nsg9
(lp4020
g4015
ag4016
asbsS'n494'
p4021
(i__main__
adj_list
p4022
(dp4023
g4
g4021
sg5
Nsg6
Nsg7
Nsg8
Nsg9
(lp4024
g68
ag4010
asbsS'n833'
p4025
(i__main__
adj_list
p4026
(dp4027
g4
g4025
sg5
Nsg6
Nsg7
Nsg8
Nsg9
(lp4028
S'n754'
p4029
asbsS'n832'
p4030
(i__main__
adj_list
p4031
(dp4032
g4
g4030
sg5
Nsg6
Nsg7
Nsg8
Nsg9
(lp4033
S'n776'
p4034
asbsS'n831'
p4035
(i__main__
adj_list
p4036
(dp4037
g4
g4035
sg5
Nsg6
Nsg7
Nsg8
Nsg9
(lp4038
S'n828'
p4039
ag1140
asbsS'n830'
p4040
(i__main__
adj_list
p4041
(dp4042
g4
g4040
sg5
Nsg6
Nsg7
Nsg8
Nsg9
(lp4043
g3311
ag2006
asbsS'n837'
p4044
(i__main__
adj_list
p4045
(dp4046
g4
g4044
sg5
Nsg6
Nsg7
Nsg8
Nsg9
(lp4047
g2090
ag2099
asbsS'n497'
p4048
(i__main__
adj_list
p4049
(dp4050
g4
g4048
sg5
Nsg6
Nsg7
Nsg8
Nsg9
(lp4051
g680
asbsS'n835'
p4052
(i__main__
adj_list
p4053
(dp4054
g4
g4052
sg5
Nsg6
Nsg7
Nsg8
Nsg9
(lp4055
g2090
ag2091
asbsS'\\U0/U0/U1/IN1P[3]'
p4056
(i__main__
adj_list
p4057
(dp4058
g4
g4056
sg5
Nsg6
Nsg7
Nsg8
Nsg9
(lp4059
g932
ag51
ag933
ag2573
aS'n769'
p4060
ag4039
aS'n844'
p4061
aS'n895'
p4062
ag3129
ag1514
ag3251
aS'n1023'
p4063
ag3253
ag823
ag2594
aS'n1164'
p4064
ag1433
aS'n1208'
p4065
ag3570
ag3571
ag3519
ag3520
ag225
ag829
aS'n1282'
p4066
ag3990
asbsS'n987'
p4067
(i__main__
adj_list
p4068
(dp4069
g4
g4067
sg5
Nsg6
Nsg7
Nsg8
Nsg9
(lp4070
S'n927'
p4071
aS'n986'
p4072
asbsS'n496'
p4073
(i__main__
adj_list
p4074
(dp4075
g4
g4073
sg5
Nsg6
Nsg7
Nsg8
Nsg9
(lp4076
g680
ag2355
asbsS'n1110'
p4077
(i__main__
adj_list
p4078
(dp4079
g4
g4077
sg5
Nsg6
Nsg7
Nsg8
Nsg9
(lp4080
g95
asbsS'n986'
p4081
(i__main__
adj_list
p4082
(dp4083
g4
g4081
sg5
Nsg6
Nsg7
Nsg8
Nsg9
(lp4084
g2016
ag272
aS'n661'
p4085
asbsS'n491'
p4086
(i__main__
adj_list
p4087
(dp4088
g4
g4086
sg5
Nsg6
Nsg7
Nsg8
Nsg9
(lp4089
S'n432'
p4090
aS'n448'
p4091
asbsS'n1038'
p4092
(i__main__
adj_list
p4093
(dp4094
g4
g4092
sg5
Nsg6
Nsg7
Nsg8
Nsg9
(lp4095
g16
ag3995
asbsS'n985'
p4096
(i__main__
adj_list
p4097
(dp4098
g4
g4096
sg5
Nsg6
Nsg7
Nsg8
Nsg9
(lp4099
g1230
ag272
ag4085
asbsS'n1230'
p4100
(i__main__
adj_list
p4101
(dp4102
g4
g4100
sg5
Nsg6
Nsg7
Nsg8
Nsg9
(lp4103
g4004
ag4005
asbsS'n490'
p4104
(i__main__
adj_list
p4105
(dp4106
g4
g4104
sg5
Nsg6
Nsg7
Nsg8
Nsg9
(lp4107
g4090
ag4091
asbsS'n644'
p4108
(i__main__
adj_list
p4109
(dp4110
g4
g4108
sg5
Nsg6
Nsg7
Nsg8
Nsg9
(lp4111
g1308
ag3373
ag2629
ag203
ag2355
asbsS'n378'
p4112
(i__main__
adj_list
p4113
(dp4114
g4
g4112
sg5
Nsg6
Nsg7
Nsg8
Nsg9
(lp4115
S'n168'
p4116
ag674
asbsS'n646'
p4117
(i__main__
adj_list
p4118
(dp4119
g4
g4117
sg5
Nsg6
Nsg7
Nsg8
Nsg9
(lp4120
g2263
ag3857
ag2265
asbsS'n647'
p4121
(i__main__
adj_list
p4122
(dp4123
g4
g4121
sg5
Nsg6
Nsg7
Nsg8
Nsg9
(lp4124
g2762
ag2763
ag1738
asbsS'n129'
p4125
(i__main__
adj_list
p4126
(dp4127
g4
g4125
sg5
Nsg6
Nsg7
Nsg8
Nsg9
(lp4128
g375
ag387
aS'n83'
p4129
asbsS'n128'
p4130
(i__main__
adj_list
p4131
(dp4132
g4
g4130
sg5
Nsg6
Nsg7
Nsg8
Nsg9
(lp4133
g101
ag387
ag4129
asbsS'n642'
p4134
(i__main__
adj_list
p4135
(dp4136
g4
g4134
sg5
Nsg6
Nsg7
Nsg8
Nsg9
(lp4137
g2628
ag2629
ag2630
asbsS'n379'
p4138
(i__main__
adj_list
p4139
(dp4140
g4
g4138
sg5
Nsg6
Nsg7
Nsg8
Nsg9
(lp4141
g686
asbsS'n125'
p4142
(i__main__
adj_list
p4143
(dp4144
g4
g4142
sg5
Nsg6
Nsg7
Nsg8
Nsg9
(lp4145
g1071
asbsS'n124'
p4146
(i__main__
adj_list
p4147
(dp4148
g4
g4146
sg5
Nsg6
Nsg7
Nsg8
Nsg9
(lp4149
g80
asbsS'n127'
p4150
(i__main__
adj_list
p4151
(dp4152
g4
g4150
sg5
Nsg6
Nsg7
Nsg8
Nsg9
(lp4153
g101
asbsS'n126'
p4154
(i__main__
adj_list
p4155
(dp4156
g4
g4154
sg5
Nsg6
Nsg7
Nsg8
Nsg9
(lp4157
g374
aS'n86'
p4158
asbsS'n121'
p4159
(i__main__
adj_list
p4160
(dp4161
g4
g4159
sg5
Nsg6
Nsg7
Nsg8
Nsg9
(lp4162
S'n52'
p4163
aS'n104'
p4164
asbsS'n120'
p4165
(i__main__
adj_list
p4166
(dp4167
g4
g4165
sg5
Nsg6
Nsg7
Nsg8
Nsg9
(lp4168
g4163
aS'n122'
p4169
asbsS'n123'
p4170
(i__main__
adj_list
p4171
(dp4172
g4
g4170
sg5
Nsg6
Nsg7
Nsg8
Nsg9
(lp4173
g144
asbsS'n122'
p4174
(i__main__
adj_list
p4175
(dp4176
g4
g4174
sg5
Nsg6
Nsg7
Nsg8
Nsg9
(lp4177
g4163
ag4164
asbsS'n12'
p4178
(i__main__
adj_list
p4179
(dp4180
g4
g4178
sg5
Nsg6
Nsg7
Nsg8
Nsg9
(lp4181
S'n9'
p4182
ag3962
aS'n7'
p4183
asbsS'n13'
p4184
(i__main__
adj_list
p4185
(dp4186
g4
g4184
sg5
Nsg6
Nsg7
Nsg8
Nsg9
(lp4187
S'P[3]'
p4188
aS'n11'
p4189
asbsS'n10'
p4190
(i__main__
adj_list
p4191
(dp4192
g4
g4190
sg5
Nsg6
Nsg7
Nsg8
Nsg9
(lp4193
g1446
ag4183
asbsS'n11'
p4194
(i__main__
adj_list
p4195
(dp4196
g4
g4194
sg5
Nsg6
Nsg7
Nsg8
Nsg9
(lp4197
g4182
ag3962
ag4183
asbsS'n16'
p4198
(i__main__
adj_list
p4199
(dp4200
g4
g4198
sg5
Nsg6
Nsg7
Nsg8
Nsg9
(lp4201
S'n14'
p4202
aS'P[2]'
p4203
ag4189
asbsS'n17'
p4204
(i__main__
adj_list
p4205
(dp4206
g4
g4204
sg5
Nsg6
Nsg7
Nsg8
Nsg9
(lp4207
S'P[31]'
p4208
asbsS'n14'
p4209
(i__main__
adj_list
p4210
(dp4211
g4
g4209
sg5
Nsg6
Nsg7
Nsg8
Nsg9
(lp4212
g4188
asbsS'n15'
p4213
(i__main__
adj_list
p4214
(dp4215
g4
g4213
sg5
Nsg6
Nsg7
Nsg8
Nsg9
(lp4216
g4202
ag4203
ag4189
asbsS'n1085'
p4217
(i__main__
adj_list
p4218
(dp4219
g4
g4217
sg5
Nsg6
Nsg7
Nsg8
Nsg9
(lp4220
g2870
ag2871
asbsS'n18'
p4221
(i__main__
adj_list
p4222
(dp4223
g4
g4221
sg5
Nsg6
Nsg7
Nsg8
Nsg9
(lp4224
g4208
ag3140
asbsS'n19'
p4225
(i__main__
adj_list
p4226
(dp4227
g4
g4225
sg5
Nsg6
Nsg7
Nsg8
Nsg9
(lp4228
g4208
ag3135
asbsS'n1088'
p4229
(i__main__
adj_list
p4230
(dp4231
g4
g4229
sg5
Nsg6
Nsg7
Nsg8
Nsg9
(lp4232
g1945
aS'n1101'
p4233
aS'n1100'
p4234
asbsS'n1089'
p4235
(i__main__
adj_list
p4236
(dp4237
g4
g4235
sg5
Nsg6
Nsg7
Nsg8
Nsg9
(lp4238
g1945
ag4233
ag4234
asbsS'n758'
p4239
(i__main__
adj_list
p4240
(dp4241
g4
g4239
sg5
Nsg6
Nsg7
Nsg8
Nsg9
(lp4242
g793
aS'n760'
p4243
asbsS'n1009'
p4244
(i__main__
adj_list
p4245
(dp4246
g4
g4244
sg5
Nsg6
Nsg7
Nsg8
Nsg9
(lp4247
S'n961'
p4248
asbsS'n1118'
p4249
(i__main__
adj_list
p4250
(dp4251
g4
g4249
sg5
Nsg6
Nsg7
Nsg8
Nsg9
(lp4252
S'n1071'
p4253
asbsS'n1119'
p4254
(i__main__
adj_list
p4255
(dp4256
g4
g4254
sg5
Nsg6
Nsg7
Nsg8
Nsg9
(lp4257
g2876
asbsS'n614'
p4258
(i__main__
adj_list
p4259
(dp4260
g4
g4258
sg5
Nsg6
Nsg7
Nsg8
Nsg9
(lp4261
g1208
ag1209
asbsS'n1005'
p4262
(i__main__
adj_list
p4263
(dp4264
g4
g4262
sg5
Nsg6
Nsg7
Nsg8
Nsg9
(lp4265
S'n963'
p4266
asbsS'n1236'
p4267
(i__main__
adj_list
p4268
(dp4269
g4
g4267
sg5
Nsg6
Nsg7
Nsg8
Nsg9
(lp4270
g3530
ag3571
asbsS'n1278'
p4271
(i__main__
adj_list
p4272
(dp4273
g4
g4271
sg5
Nsg6
Nsg7
Nsg8
Nsg9
(lp4274
S'n1265'
p4275
asbsS'n759'
p4276
(i__main__
adj_list
p4277
(dp4278
g4
g4276
sg5
Nsg6
Nsg7
Nsg8
Nsg9
(lp4279
g793
ag4243
asbsS'n1277'
p4280
(i__main__
adj_list
p4281
(dp4282
g4
g4280
sg5
Nsg6
Nsg7
Nsg8
Nsg9
(lp4283
g4275
asbsS'n989'
p4284
(i__main__
adj_list
p4285
(dp4286
g4
g4284
sg5
Nsg6
Nsg7
Nsg8
Nsg9
(lp4287
g2623
aS'n987'
p4288
asbsS'n1276'
p4289
(i__main__
adj_list
p4290
(dp4291
g4
g4289
sg5
Nsg6
Nsg7
Nsg8
Nsg9
(lp4292
g3939
asbsS'n1180'
p4293
(i__main__
adj_list
p4294
(dp4295
g4
g4293
sg5
Nsg6
Nsg7
Nsg8
Nsg9
(lp4296
g1198
ag2609
asbsS'n988'
p4297
(i__main__
adj_list
p4298
(dp4299
g4
g4297
sg5
Nsg6
Nsg7
Nsg8
Nsg9
(lp4300
g4071
ag4072
asbsS'n957'
p4301
(i__main__
adj_list
p4302
(dp4303
g4
g4301
sg5
Nsg6
Nsg7
Nsg8
Nsg9
(lp4304
g857
aS'n956'
p4305
asbsS'n1274'
p4306
(i__main__
adj_list
p4307
(dp4308
g4
g4306
sg5
Nsg6
Nsg7
Nsg8
Nsg9
(lp4309
g799
ag800
asbsS'n1006'
p4310
(i__main__
adj_list
p4311
(dp4312
g4
g4310
sg5
Nsg6
Nsg7
Nsg8
Nsg9
(lp4313
g187
ag2881
asbsS'n1047'
p4314
(i__main__
adj_list
p4315
(dp4316
g4
g4314
sg5
Nsg6
Nsg7
Nsg8
Nsg9
(lp4317
g2398
asbsS'n972'
p4318
(i__main__
adj_list
p4319
(dp4320
g4
g4318
sg5
Nsg6
Nsg7
Nsg8
Nsg9
(lp4321
g3439
aS'n973'
p4322
asbsS'n1272'
p4323
(i__main__
adj_list
p4324
(dp4325
g4
g4323
sg5
Nsg6
Nsg7
Nsg8
Nsg9
(lp4326
g836
ag837
asbsS'n460'
p4327
(i__main__
adj_list
p4328
(dp4329
g4
g4327
sg5
Nsg6
Nsg7
Nsg8
Nsg9
(lp4330
S'n404'
p4331
asbsS'n461'
p4332
(i__main__
adj_list
p4333
(dp4334
g4
g4332
sg5
Nsg6
Nsg7
Nsg8
Nsg9
(lp4335
g4331
asbsS'n462'
p4336
(i__main__
adj_list
p4337
(dp4338
g4
g4336
sg5
Nsg6
Nsg7
Nsg8
Nsg9
(lp4339
S'n461'
p4340
aS'n480'
p4341
asbsS'n463'
p4342
(i__main__
adj_list
p4343
(dp4344
g4
g4342
sg5
Nsg6
Nsg7
Nsg8
Nsg9
(lp4345
g177
ag22
asbsS'n464'
p4346
(i__main__
adj_list
p4347
(dp4348
g4
g4346
sg5
Nsg6
Nsg7
Nsg8
Nsg9
(lp4349
g2454
asbsS'n465'
p4350
(i__main__
adj_list
p4351
(dp4352
g4
g4350
sg5
Nsg6
Nsg7
Nsg8
Nsg9
(lp4353
g2448
asbsS'n466'
p4354
(i__main__
adj_list
p4355
(dp4356
g4
g4354
sg5
Nsg6
Nsg7
Nsg8
Nsg9
(lp4357
S'n406'
p4358
aS'n468'
p4359
asbsS'n467'
p4360
(i__main__
adj_list
p4361
(dp4362
g4
g4360
sg5
Nsg6
Nsg7
Nsg8
Nsg9
(lp4363
g4358
ag4359
asbsS'n468'
p4364
(i__main__
adj_list
p4365
(dp4366
g4
g4364
sg5
Nsg6
Nsg7
Nsg8
Nsg9
(lp4367
g4358
aS'n392'
p4368
asbsS'n469'
p4369
(i__main__
adj_list
p4370
(dp4371
g4
g4369
sg5
Nsg6
Nsg7
Nsg8
Nsg9
(lp4372
g4358
ag4368
asbsS'n783'
p4373
(i__main__
adj_list
p4374
(dp4375
g4
g4373
sg5
Nsg6
Nsg7
Nsg8
Nsg9
(lp4376
g2304
aS'n792'
p4377
asbsS'n782'
p4378
(i__main__
adj_list
p4379
(dp4380
g4
g4378
sg5
Nsg6
Nsg7
Nsg8
Nsg9
(lp4381
g2304
ag4377
asbsS'n785'
p4382
(i__main__
adj_list
p4383
(dp4384
g4
g4382
sg5
Nsg6
Nsg7
Nsg8
Nsg9
(lp4385
S'n721'
p4386
aS'n790'
p4387
asbsS'n784'
p4388
(i__main__
adj_list
p4389
(dp4390
g4
g4388
sg5
Nsg6
Nsg7
Nsg8
Nsg9
(lp4391
g4386
ag4387
asbsS'n787'
p4392
(i__main__
adj_list
p4393
(dp4394
g4
g4392
sg5
Nsg6
Nsg7
Nsg8
Nsg9
(lp4395
g4386
aS'n859'
p4396
asbsS'n786'
p4397
(i__main__
adj_list
p4398
(dp4399
g4
g4397
sg5
Nsg6
Nsg7
Nsg8
Nsg9
(lp4400
g4386
asbsS'P[18]'
p4401
(i__main__
adj_list
p4402
(dp4403
g4
g4401
sg5
Nsg6
Nsg7
Nsg8
Nsg9
(lp4404
sbsS'n789'
p4405
(i__main__
adj_list
p4406
(dp4407
g4
g4405
sg5
Nsg6
Nsg7
Nsg8
Nsg9
(lp4408
g215
ag1371
ag4396
asbsS'n1048'
p4409
(i__main__
adj_list
p4410
(dp4411
g4
g4409
sg5
Nsg6
Nsg7
Nsg8
Nsg9
(lp4412
g2975
asbsS'n845'
p4413
(i__main__
adj_list
p4414
(dp4415
g4
g4413
sg5
Nsg6
Nsg7
Nsg8
Nsg9
(lp4416
g3980
asbsS'n1007'
p4417
(i__main__
adj_list
p4418
(dp4419
g4
g4417
sg5
Nsg6
Nsg7
Nsg8
Nsg9
(lp4420
g3783
aS'n1053'
p4421
ag1426
ag1427
asbsS'n549'
p4422
(i__main__
adj_list
p4423
(dp4424
g4
g4422
sg5
Nsg6
Nsg7
Nsg8
Nsg9
(lp4425
g1085
aS'n548'
p4426
asbsS'n6'
p4427
(i__main__
adj_list
p4428
(dp4429
g4
g4427
sg5
Nsg6
Nsg7
Nsg8
Nsg9
(lp4430
S'P[7]'
p4431
aS'n4'
p4432
asbsS'n547'
p4433
(i__main__
adj_list
p4434
(dp4435
g4
g4433
sg5
Nsg6
Nsg7
Nsg8
Nsg9
(lp4436
S'n467'
p4437
asbsS'n546'
p4438
(i__main__
adj_list
p4439
(dp4440
g4
g4438
sg5
Nsg6
Nsg7
Nsg8
Nsg9
(lp4441
g4437
asbsS'n545'
p4442
(i__main__
adj_list
p4443
(dp4444
g4
g4442
sg5
Nsg6
Nsg7
Nsg8
Nsg9
(lp4445
S'n543'
p4446
aS'n597'
p4447
ag1844
aS'n678'
p4448
ag1845
ag1915
ag1916
ag767
aS'n875'
p4449
ag3103
ag3104
aS'n939'
p4450
aS'n1003'
p4451
ag3783
ag4421
asbsS'n544'
p4452
(i__main__
adj_list
p4453
(dp4454
g4
g4452
sg5
Nsg6
Nsg7
Nsg8
Nsg9
(lp4455
S'n469'
p4456
ag1649
asbsS'n543'
p4457
(i__main__
adj_list
p4458
(dp4459
g4
g4457
sg5
Nsg6
Nsg7
Nsg8
Nsg9
(lp4460
g4456
asbsS'n542'
p4461
(i__main__
adj_list
p4462
(dp4463
g4
g4461
sg5
Nsg6
Nsg7
Nsg8
Nsg9
(lp4464
g4456
aS'n565'
p4465
asbsS'n541'
p4466
(i__main__
adj_list
p4467
(dp4468
g4
g4466
sg5
Nsg6
Nsg7
Nsg8
Nsg9
(lp4469
g4456
ag4465
asbsS'n540'
p4470
(i__main__
adj_list
p4471
(dp4472
g4
g4470
sg5
Nsg6
Nsg7
Nsg8
Nsg9
(lp4473
g107
ag113
asbsS'n437'
p4474
(i__main__
adj_list
p4475
(dp4476
g4
g4474
sg5
Nsg6
Nsg7
Nsg8
Nsg9
(lp4477
g702
asbsS'n1173'
p4478
(i__main__
adj_list
p4479
(dp4480
g4
g4478
sg5
Nsg6
Nsg7
Nsg8
Nsg9
(lp4481
S'n1158'
p4482
ag2635
asbsS'n436'
p4483
(i__main__
adj_list
p4484
(dp4485
g4
g4483
sg5
Nsg6
Nsg7
Nsg8
Nsg9
(lp4486
S'n85'
p4487
asbsS'n1174'
p4488
(i__main__
adj_list
p4489
(dp4490
g4
g4488
sg5
Nsg6
Nsg7
Nsg8
Nsg9
(lp4491
g4482
ag2635
asbsS'n435'
p4492
(i__main__
adj_list
p4493
(dp4494
g4
g4492
sg5
Nsg6
Nsg7
Nsg8
Nsg9
(lp4495
g3097
aS'n380'
p4496
asbsS'n1175'
p4497
(i__main__
adj_list
p4498
(dp4499
g4
g4497
sg5
Nsg6
Nsg7
Nsg8
Nsg9
(lp4500
S'n1157'
p4501
aS'n1171'
p4502
asbsS'n1081'
p4503
(i__main__
adj_list
p4504
(dp4505
g4
g4503
sg5
Nsg6
Nsg7
Nsg8
Nsg9
(lp4506
g2951
ag2952
asbsS'n434'
p4507
(i__main__
adj_list
p4508
(dp4509
g4
g4507
sg5
Nsg6
Nsg7
Nsg8
Nsg9
(lp4510
g3097
ag4496
asbsS'n1176'
p4511
(i__main__
adj_list
p4512
(dp4513
g4
g4511
sg5
Nsg6
Nsg7
Nsg8
Nsg9
(lp4514
g4501
ag4502
asbsS'n1010'
p4515
(i__main__
adj_list
p4516
(dp4517
g4
g4515
sg5
Nsg6
Nsg7
Nsg8
Nsg9
(lp4518
g4248
asbsS'n970'
p4519
(i__main__
adj_list
p4520
(dp4521
g4
g4519
sg5
Nsg6
Nsg7
Nsg8
Nsg9
(lp4522
g3439
ag3440
asbsS'n433'
p4523
(i__main__
adj_list
p4524
(dp4525
g4
g4523
sg5
Nsg6
Nsg7
Nsg8
Nsg9
(lp4526
g3097
ag3098
asbsS'n1177'
p4527
(i__main__
adj_list
p4528
(dp4529
g4
g4527
sg5
Nsg6
Nsg7
Nsg8
Nsg9
(lp4530
S'n1172'
p4531
ag1596
asbsS'n1148'
p4532
(i__main__
adj_list
p4533
(dp4534
g4
g4532
sg5
Nsg6
Nsg7
Nsg8
Nsg9
(lp4535
g3340
ag3341
asbsg4188
(i__main__
adj_list
p4536
(dp4537
g4
g4188
sg5
Nsg6
Nsg7
Nsg8
Nsg9
(lp4538
sbsS'n486'
p4539
(i__main__
adj_list
p4540
(dp4541
g4
g4539
sg5
Nsg6
Nsg7
Nsg8
Nsg9
(lp4542
g2382
ag2383
asbsS'n431'
p4543
(i__main__
adj_list
p4544
(dp4545
g4
g4543
sg5
Nsg6
Nsg7
Nsg8
Nsg9
(lp4546
g3614
aS'n434'
p4547
asbsS'n780'
p4548
(i__main__
adj_list
p4549
(dp4550
g4
g4548
sg5
Nsg6
Nsg7
Nsg8
Nsg9
(lp4551
g2304
ag2305
asbsS'n430'
p4552
(i__main__
adj_list
p4553
(dp4554
g4
g4552
sg5
Nsg6
Nsg7
Nsg8
Nsg9
(lp4555
g3614
ag4547
asbsS'\\U0/U0/IN2R[9]'
p4556
(i__main__
adj_list
p4557
(dp4558
g4
g4556
sg5
Nsg6
Nsg7
Nsg8
Nsg9
(lp4559
g607
ag2168
ag237
aS'n290'
p4560
ag2406
ag239
ag2453
ag2407
ag4340
ag3499
ag2844
aS'n556'
p4561
ag180
ag2845
aS'n681'
p4562
ag182
ag2428
aS'n756'
p4563
ag3311
ag2429
ag1060
ag3312
ag3129
aS'n958'
p4564
ag1224
ag4063
ag663
ag1537
ag862
ag2298
aS'n1268'
p4565
asbsS'n1082'
p4566
(i__main__
adj_list
p4567
(dp4568
g4
g4566
sg5
Nsg6
Nsg7
Nsg8
Nsg9
(lp4569
g2951
ag3020
asbsS'n305'
p4570
(i__main__
adj_list
p4571
(dp4572
g4
g4570
sg5
Nsg6
Nsg7
Nsg8
Nsg9
(lp4573
S'n264'
p4574
asbsS'n304'
p4575
(i__main__
adj_list
p4576
(dp4577
g4
g4575
sg5
Nsg6
Nsg7
Nsg8
Nsg9
(lp4578
g4574
asbsS'n307'
p4579
(i__main__
adj_list
p4580
(dp4581
g4
g4579
sg5
Nsg6
Nsg7
Nsg8
Nsg9
(lp4582
g173
aS'n306'
p4583
asbsS'n306'
p4584
(i__main__
adj_list
p4585
(dp4586
g4
g4584
sg5
Nsg6
Nsg7
Nsg8
Nsg9
(lp4587
S'n305'
p4588
aS'n308'
p4589
asbsS'n301'
p4590
(i__main__
adj_list
p4591
(dp4592
g4
g4590
sg5
Nsg6
Nsg7
Nsg8
Nsg9
(lp4593
S'n298'
p4594
aS'n268'
p4595
asbsS'n300'
p4596
(i__main__
adj_list
p4597
(dp4598
g4
g4596
sg5
Nsg6
Nsg7
Nsg8
Nsg9
(lp4599
g4594
aS'n339'
p4600
aS'n363'
p4601
asbsg159
(i__main__
adj_list
p4602
(dp4603
g4
g159
sg5
Nsg6
Nsg7
Nsg8
Nsg9
(lp4604
sbsS'n302'
p4605
(i__main__
adj_list
p4606
(dp4607
g4
g4605
sg5
Nsg6
Nsg7
Nsg8
Nsg9
(lp4608
g2769
asbsS'n266'
p4609
(i__main__
adj_list
p4610
(dp4611
g4
g4609
sg5
Nsg6
Nsg7
Nsg8
Nsg9
(lp4612
S'n225'
p4613
aS'n277'
p4614
asbsS'n267'
p4615
(i__main__
adj_list
p4616
(dp4617
g4
g4615
sg5
Nsg6
Nsg7
Nsg8
Nsg9
(lp4618
g4613
asbsS'n264'
p4619
(i__main__
adj_list
p4620
(dp4621
g4
g4619
sg5
Nsg6
Nsg7
Nsg8
Nsg9
(lp4622
S'n222'
p4623
aS'n262'
p4624
asbsS'n265'
p4625
(i__main__
adj_list
p4626
(dp4627
g4
g4625
sg5
Nsg6
Nsg7
Nsg8
Nsg9
(lp4628
g4613
ag4614
asbsS'n309'
p4629
(i__main__
adj_list
p4630
(dp4631
g4
g4629
sg5
Nsg6
Nsg7
Nsg8
Nsg9
(lp4632
g2826
aS'n312'
p4633
asbsS'n308'
p4634
(i__main__
adj_list
p4635
(dp4636
g4
g4634
sg5
Nsg6
Nsg7
Nsg8
Nsg9
(lp4637
g2826
ag4633
asbsS'n260'
p4638
(i__main__
adj_list
p4639
(dp4640
g4
g4638
sg5
Nsg6
Nsg7
Nsg8
Nsg9
(lp4641
g923
aS'n259'
p4642
asbsS'n261'
p4643
(i__main__
adj_list
p4644
(dp4645
g4
g4643
sg5
Nsg6
Nsg7
Nsg8
Nsg9
(lp4646
g4623
aS'n271'
p4647
asbsS'n973'
p4648
(i__main__
adj_list
p4649
(dp4650
g4
g4648
sg5
Nsg6
Nsg7
Nsg8
Nsg9
(lp4651
g1186
ag3287
asbsS'n1292'
p4652
(i__main__
adj_list
p4653
(dp4654
g4
g4652
sg5
Nsg6
Nsg7
Nsg8
Nsg9
(lp4655
g1355
ag3522
asbsS'n1256'
p4656
(i__main__
adj_list
p4657
(dp4658
g4
g4656
sg5
Nsg6
Nsg7
Nsg8
Nsg9
(lp4659
g3318
ag3466
asbsS'n1161'
p4660
(i__main__
adj_list
p4661
(dp4662
g4
g4660
sg5
Nsg6
Nsg7
Nsg8
Nsg9
(lp4663
g3341
asbsS'n1269'
p4664
(i__main__
adj_list
p4665
(dp4666
g4
g4664
sg5
Nsg6
Nsg7
Nsg8
Nsg9
(lp4667
g836
ag842
asbsS'n1002'
p4668
(i__main__
adj_list
p4669
(dp4670
g4
g4668
sg5
Nsg6
Nsg7
Nsg8
Nsg9
(lp4671
S'n950'
p4672
asbsS'n284'
p4673
(i__main__
adj_list
p4674
(dp4675
g4
g4673
sg5
Nsg6
Nsg7
Nsg8
Nsg9
(lp4676
g2115
ag701
ag696
aS'n132'
p4677
aS'P[22]'
p4678
asbsS'n285'
p4679
(i__main__
adj_list
p4680
(dp4681
g4
g4679
sg5
Nsg6
Nsg7
Nsg8
Nsg9
(lp4682
g2728
asbsS'n286'
p4683
(i__main__
adj_list
p4684
(dp4685
g4
g4683
sg5
Nsg6
Nsg7
Nsg8
Nsg9
(lp4686
S'n250'
p4687
asbsS'n287'
p4688
(i__main__
adj_list
p4689
(dp4690
g4
g4688
sg5
Nsg6
Nsg7
Nsg8
Nsg9
(lp4691
g4687
asbsS'n280'
p4692
(i__main__
adj_list
p4693
(dp4694
g4
g4692
sg5
Nsg6
Nsg7
Nsg8
Nsg9
(lp4695
g2114
asbsS'n281'
p4696
(i__main__
adj_list
p4697
(dp4698
g4
g4696
sg5
Nsg6
Nsg7
Nsg8
Nsg9
(lp4699
S'n280'
p4700
ag696
aS'n284'
p4701
asbsS'n282'
p4702
(i__main__
adj_list
p4703
(dp4704
g4
g4702
sg5
Nsg6
Nsg7
Nsg8
Nsg9
(lp4705
g4700
ag696
ag4701
asbsS'n283'
p4706
(i__main__
adj_list
p4707
(dp4708
g4
g4706
sg5
Nsg6
Nsg7
Nsg8
Nsg9
(lp4709
S'n101'
p4710
ag4677
ag4116
ag2650
asbsS'n1247'
p4711
(i__main__
adj_list
p4712
(dp4713
g4
g4711
sg5
Nsg6
Nsg7
Nsg8
Nsg9
(lp4714
S'n1106'
p4715
asbsS'n1112'
p4716
(i__main__
adj_list
p4717
(dp4718
g4
g4716
sg5
Nsg6
Nsg7
Nsg8
Nsg9
(lp4719
g2433
ag3952
asbsS'n288'
p4720
(i__main__
adj_list
p4721
(dp4722
g4
g4720
sg5
Nsg6
Nsg7
Nsg8
Nsg9
(lp4723
g237
aS'n296'
p4724
asbsS'n289'
p4725
(i__main__
adj_list
p4726
(dp4727
g4
g4725
sg5
Nsg6
Nsg7
Nsg8
Nsg9
(lp4728
g1842
aS'n288'
p4729
asbsS'\\U0/U0/U1/IN1P[7]'
p4730
(i__main__
adj_list
p4731
(dp4732
g4
g4730
sg5
Nsg6
Nsg7
Nsg8
Nsg9
(lp4733
g925
ag47
ag926
ag2570
aS'n473'
p4734
aS'n527'
p4735
aS'n552'
p4736
aS'n587'
p4737
ag4562
ag1510
ag3246
ag4563
ag3248
ag816
ag2591
ag818
ag3987
ag3516
ag3517
aS'n942'
p4738
aS'n1251'
p4739
ag283
aS'n1285'
p4740
asbsS'n1259'
p4741
(i__main__
adj_list
p4742
(dp4743
g4
g4741
sg5
Nsg6
Nsg7
Nsg8
Nsg9
(lp4744
g1634
asbsS'n1011'
p4745
(i__main__
adj_list
p4746
(dp4747
g4
g4745
sg5
Nsg6
Nsg7
Nsg8
Nsg9
(lp4748
g819
ag2792
asbsS'n1150'
p4749
(i__main__
adj_list
p4750
(dp4751
g4
g4749
sg5
Nsg6
Nsg7
Nsg8
Nsg9
(lp4752
S'n10'
p4753
ag2316
asbsS'n1003'
p4754
(i__main__
adj_list
p4755
(dp4756
g4
g4754
sg5
Nsg6
Nsg7
Nsg8
Nsg9
(lp4757
S'n941'
p4758
asbsS'n161'
p4759
(i__main__
adj_list
p4760
(dp4761
g4
g4759
sg5
Nsg6
Nsg7
Nsg8
Nsg9
(lp4762
g387
asbsS'n160'
p4763
(i__main__
adj_list
p4764
(dp4765
g4
g4763
sg5
Nsg6
Nsg7
Nsg8
Nsg9
(lp4766
g2518
aS'n102'
p4767
asbsS'n163'
p4768
(i__main__
adj_list
p4769
(dp4770
g4
g4768
sg5
Nsg6
Nsg7
Nsg8
Nsg9
(lp4771
S'n161'
p4772
aS'n126'
p4773
aS'n165'
p4774
asbsS'n162'
p4775
(i__main__
adj_list
p4776
(dp4777
g4
g4775
sg5
Nsg6
Nsg7
Nsg8
Nsg9
(lp4778
g4772
ag4773
ag4774
asbsS'n165'
p4779
(i__main__
adj_list
p4780
(dp4781
g4
g4779
sg5
Nsg6
Nsg7
Nsg8
Nsg9
(lp4782
g388
ag2113
ag4773
aS'n84'
p4783
ag3811
asbsS'n164'
p4784
(i__main__
adj_list
p4785
(dp4786
g4
g4784
sg5
Nsg6
Nsg7
Nsg8
Nsg9
(lp4787
g2519
ag4783
ag4767
ag4710
asbsS'n167'
p4788
(i__main__
adj_list
p4789
(dp4790
g4
g4788
sg5
Nsg6
Nsg7
Nsg8
Nsg9
(lp4791
S'n159'
p4792
aS'n62'
p4793
asbsS'n166'
p4794
(i__main__
adj_list
p4795
(dp4796
g4
g4794
sg5
Nsg6
Nsg7
Nsg8
Nsg9
(lp4797
g4792
ag4401
asbsS'n169'
p4798
(i__main__
adj_list
p4799
(dp4800
g4
g4798
sg5
Nsg6
Nsg7
Nsg8
Nsg9
(lp4801
g3010
ag3011
asbsS'n168'
p4802
(i__main__
adj_list
p4803
(dp4804
g4
g4802
sg5
Nsg6
Nsg7
Nsg8
Nsg9
(lp4805
g4792
ag4793
asbsS'n919'
p4806
(i__main__
adj_list
p4807
(dp4808
g4
g4806
sg5
Nsg6
Nsg7
Nsg8
Nsg9
(lp4809
g1686
aS'n923'
p4810
asbsS'n548'
p4811
(i__main__
adj_list
p4812
(dp4813
g4
g4811
sg5
Nsg6
Nsg7
Nsg8
Nsg9
(lp4814
g808
aS'n558'
p4815
asbsS'\\U0/U0/IN2R[12]'
p4816
(i__main__
adj_list
p4817
(dp4818
g4
g4816
sg5
Nsg6
Nsg7
Nsg8
Nsg9
(lp4819
g2166
aS'n149'
p4820
aS'n177'
p4821
ag234
ag235
ag1921
ag2404
ag2768
ag3498
ag4588
aS'n347'
p4822
ag2841
ag2842
ag176
ag178
ag4734
ag4735
ag2424
ag2426
ag3307
ag3309
ag3354
aS'n766'
p4823
ag4060
ag4061
ag1532
ag855
ag1534
ag858
ag2705
aS'n1033'
p4824
asbsS'n427'
p4825
(i__main__
adj_list
p4826
(dp4827
g4
g4825
sg5
Nsg6
Nsg7
Nsg8
Nsg9
(lp4828
S'n374'
p4829
aS'n428'
p4830
asbsS'n608'
p4831
(i__main__
adj_list
p4832
(dp4833
g4
g4831
sg5
Nsg6
Nsg7
Nsg8
Nsg9
(lp4834
S'n533'
p4835
asbsS'n609'
p4836
(i__main__
adj_list
p4837
(dp4838
g4
g4836
sg5
Nsg6
Nsg7
Nsg8
Nsg9
(lp4839
S'n531'
p4840
asbsS'P[8]'
p4841
(i__main__
adj_list
p4842
(dp4843
g4
g4841
sg5
Nsg6
Nsg7
Nsg8
Nsg9
(lp4844
sbsS'n764'
p4845
(i__main__
adj_list
p4846
(dp4847
g4
g4845
sg5
Nsg6
Nsg7
Nsg8
Nsg9
(lp4848
g647
ag648
asbsS'n763'
p4849
(i__main__
adj_list
p4850
(dp4851
g4
g4849
sg5
Nsg6
Nsg7
Nsg8
Nsg9
(lp4852
g647
aS'n764'
p4853
asbsS'n762'
p4854
(i__main__
adj_list
p4855
(dp4856
g4
g4854
sg5
Nsg6
Nsg7
Nsg8
Nsg9
(lp4857
g647
ag4853
asbsS'n761'
p4858
(i__main__
adj_list
p4859
(dp4860
g4
g4858
sg5
Nsg6
Nsg7
Nsg8
Nsg9
(lp4861
g793
ag794
asbsS'\\U0/U0/IN2R[0]'
p4862
(i__main__
adj_list
p4863
(dp4864
g4
g4862
sg5
Nsg6
Nsg7
Nsg8
Nsg9
(lp4865
g852
ag2176
ag742
aS'n868'
p4866
ag251
ag252
ag2413
ag2414
ag3504
ag3505
ag3124
aS'n1102'
p4867
ag2851
ag863
ag1539
ag4064
ag1540
aS'n1181'
p4868
ag1433
ag3315
aS'n1207'
p4869
ag2434
ag3316
ag2852
ag191
ag192
ag283
ag4740
ag2438
ag3506
asbsS'n600'
p4870
(i__main__
adj_list
p4871
(dp4872
g4
g4870
sg5
Nsg6
Nsg7
Nsg8
Nsg9
(lp4873
g4447
ag3059
asbsS'n601'
p4874
(i__main__
adj_list
p4875
(dp4876
g4
g4874
sg5
Nsg6
Nsg7
Nsg8
Nsg9
(lp4877
S'n559'
p4878
asbsS'n602'
p4879
(i__main__
adj_list
p4880
(dp4881
g4
g4879
sg5
Nsg6
Nsg7
Nsg8
Nsg9
(lp4882
g4878
asbsS'n603'
p4883
(i__main__
adj_list
p4884
(dp4885
g4
g4883
sg5
Nsg6
Nsg7
Nsg8
Nsg9
(lp4886
g809
ag3073
asbsS'n604'
p4887
(i__main__
adj_list
p4888
(dp4889
g4
g4887
sg5
Nsg6
Nsg7
Nsg8
Nsg9
(lp4890
g1087
ag1090
ag767
ag4449
ag1418
ag1419
asbsS'n605'
p4891
(i__main__
adj_list
p4892
(dp4893
g4
g4891
sg5
Nsg6
Nsg7
Nsg8
Nsg9
(lp4894
g1087
ag3087
asbsS'n606'
p4895
(i__main__
adj_list
p4896
(dp4897
g4
g4895
sg5
Nsg6
Nsg7
Nsg8
Nsg9
(lp4898
g4815
asbsS'n607'
p4899
(i__main__
adj_list
p4900
(dp4901
g4
g4899
sg5
Nsg6
Nsg7
Nsg8
Nsg9
(lp4902
g4426
asbsS'n1072'
p4903
(i__main__
adj_list
p4904
(dp4905
g4
g4903
sg5
Nsg6
Nsg7
Nsg8
Nsg9
(lp4906
g1617
aS'n1073'
p4907
asbsS'n1046'
p4908
(i__main__
adj_list
p4909
(dp4910
g4
g4908
sg5
Nsg6
Nsg7
Nsg8
Nsg9
(lp4911
S'n1018'
p4912
asbsS'n58'
p4913
(i__main__
adj_list
p4914
(dp4915
g4
g4913
sg5
Nsg6
Nsg7
Nsg8
Nsg9
(lp4916
S'n54'
p4917
asbsS'n59'
p4918
(i__main__
adj_list
p4919
(dp4920
g4
g4918
sg5
Nsg6
Nsg7
Nsg8
Nsg9
(lp4921
g4917
ag2541
asbsS'n56'
p4922
(i__main__
adj_list
p4923
(dp4924
g4
g4922
sg5
Nsg6
Nsg7
Nsg8
Nsg9
(lp4925
g153
asbsS'n57'
p4926
(i__main__
adj_list
p4927
(dp4928
g4
g4926
sg5
Nsg6
Nsg7
Nsg8
Nsg9
(lp4929
S'n56'
p4930
ag363
aS'n76'
p4931
asbsS'n54'
p4932
(i__main__
adj_list
p4933
(dp4934
g4
g4932
sg5
Nsg6
Nsg7
Nsg8
Nsg9
(lp4935
g153
asbsS'n55'
p4936
(i__main__
adj_list
p4937
(dp4938
g4
g4936
sg5
Nsg6
Nsg7
Nsg8
Nsg9
(lp4939
g153
ag4931
asbsS'n52'
p4940
(i__main__
adj_list
p4941
(dp4942
g4
g4940
sg5
Nsg6
Nsg7
Nsg8
Nsg9
(lp4943
S'n30'
p4944
aS'n66'
p4945
aS'n57'
p4946
asbsS'n53'
p4947
(i__main__
adj_list
p4948
(dp4949
g4
g4947
sg5
Nsg6
Nsg7
Nsg8
Nsg9
(lp4950
g4944
aS'n33'
p4951
asbsS'n50'
p4952
(i__main__
adj_list
p4953
(dp4954
g4
g4952
sg5
Nsg6
Nsg7
Nsg8
Nsg9
(lp4955
g119
asbsS'n51'
p4956
(i__main__
adj_list
p4957
(dp4958
g4
g4956
sg5
Nsg6
Nsg7
Nsg8
Nsg9
(lp4959
g4944
ag4945
ag4946
asbsS'n842'
p4960
(i__main__
adj_list
p4961
(dp4962
g4
g4960
sg5
Nsg6
Nsg7
Nsg8
Nsg9
(lp4963
g216
asbsS'n518'
p4964
(i__main__
adj_list
p4965
(dp4966
g4
g4964
sg5
Nsg6
Nsg7
Nsg8
Nsg9
(lp4967
g3394
ag1318
aS'n656'
p4968
ag460
ag1163
asbsS'n840'
p4969
(i__main__
adj_list
p4970
(dp4971
g4
g4969
sg5
Nsg6
Nsg7
Nsg8
Nsg9
(lp4972
g4015
aS'n857'
p4973
asbsS'n841'
p4974
(i__main__
adj_list
p4975
(dp4976
g4
g4974
sg5
Nsg6
Nsg7
Nsg8
Nsg9
(lp4977
g4015
ag4973
asbsS'n846'
p4978
(i__main__
adj_list
p4979
(dp4980
g4
g4978
sg5
Nsg6
Nsg7
Nsg8
Nsg9
(lp4981
S'n775'
p4982
asbsS'n847'
p4983
(i__main__
adj_list
p4984
(dp4985
g4
g4983
sg5
Nsg6
Nsg7
Nsg8
Nsg9
(lp4986
g4982
asbsS'n844'
p4987
(i__main__
adj_list
p4988
(dp4989
g4
g4987
sg5
Nsg6
Nsg7
Nsg8
Nsg9
(lp4990
S'n772'
p4991
asbsS'n519'
p4992
(i__main__
adj_list
p4993
(dp4994
g4
g4992
sg5
Nsg6
Nsg7
Nsg8
Nsg9
(lp4995
g3394
asbsS'n1206'
p4996
(i__main__
adj_list
p4997
(dp4998
g4
g4996
sg5
Nsg6
Nsg7
Nsg8
Nsg9
(lp4999
S'n1203'
p5000
asbsS'n1207'
p5001
(i__main__
adj_list
p5002
(dp5003
g4
g5001
sg5
Nsg6
Nsg7
Nsg8
Nsg9
(lp5004
g5000
asbsS'n848'
p5005
(i__main__
adj_list
p5006
(dp5007
g4
g5005
sg5
Nsg6
Nsg7
Nsg8
Nsg9
(lp5008
g1532
ag3750
asbsS'n849'
p5009
(i__main__
adj_list
p5010
(dp5011
g4
g5009
sg5
Nsg6
Nsg7
Nsg8
Nsg9
(lp5012
g936
ag3745
asbsS'n1017'
p5013
(i__main__
adj_list
p5014
(dp5015
g4
g5013
sg5
Nsg6
Nsg7
Nsg8
Nsg9
(lp5016
g2292
ag2373
asbsS'n1203'
p5017
(i__main__
adj_list
p5018
(dp5019
g4
g5017
sg5
Nsg6
Nsg7
Nsg8
Nsg9
(lp5020
g1596
ag1597
asbsS'n1200'
p5021
(i__main__
adj_list
p5022
(dp5023
g4
g5021
sg5
Nsg6
Nsg7
Nsg8
Nsg9
(lp5024
S'n1174'
p5025
ag4004
asbsS'n1201'
p5026
(i__main__
adj_list
p5027
(dp5028
g4
g5026
sg5
Nsg6
Nsg7
Nsg8
Nsg9
(lp5029
g5025
ag4004
asbsS'n925'
p5030
(i__main__
adj_list
p5031
(dp5032
g4
g5030
sg5
Nsg6
Nsg7
Nsg8
Nsg9
(lp5033
g1097
asbsS'n1196'
p5034
(i__main__
adj_list
p5035
(dp5036
g4
g5034
sg5
Nsg6
Nsg7
Nsg8
Nsg9
(lp5037
g1975
ag467
asbsS'n1124'
p5038
(i__main__
adj_list
p5039
(dp5040
g4
g5038
sg5
Nsg6
Nsg7
Nsg8
Nsg9
(lp5041
g664
asbsS'n924'
p5042
(i__main__
adj_list
p5043
(dp5044
g4
g5042
sg5
Nsg6
Nsg7
Nsg8
Nsg9
(lp5045
g3260
ag3261
asbsS'n1186'
p5046
(i__main__
adj_list
p5047
(dp5048
g4
g5046
sg5
Nsg6
Nsg7
Nsg8
Nsg9
(lp5049
S'n1165'
p5050
ag866
asbsS'n1000'
p5051
(i__main__
adj_list
p5052
(dp5053
g4
g5051
sg5
Nsg6
Nsg7
Nsg8
Nsg9
(lp5054
g3504
ag4912
asbsS'n421'
p5055
(i__main__
adj_list
p5056
(dp5057
g4
g5055
sg5
Nsg6
Nsg7
Nsg8
Nsg9
(lp5058
S'n360'
p5059
aS'n423'
p5060
asbsS'n660'
p5061
(i__main__
adj_list
p5062
(dp5063
g4
g5061
sg5
Nsg6
Nsg7
Nsg8
Nsg9
(lp5064
g438
aS'n521'
p5065
asbsS'n500'
p5066
(i__main__
adj_list
p5067
(dp5068
g4
g5066
sg5
Nsg6
Nsg7
Nsg8
Nsg9
(lp5069
g1324
asbsS'n114'
p5070
(i__main__
adj_list
p5071
(dp5072
g4
g5070
sg5
Nsg6
Nsg7
Nsg8
Nsg9
(lp5073
g231
aS'n110'
p5074
asbsS'n115'
p5075
(i__main__
adj_list
p5076
(dp5077
g4
g5075
sg5
Nsg6
Nsg7
Nsg8
Nsg9
(lp5078
g231
ag5074
asbsS'n116'
p5079
(i__main__
adj_list
p5080
(dp5081
g4
g5079
sg5
Nsg6
Nsg7
Nsg8
Nsg9
(lp5082
g231
asbsS'n117'
p5083
(i__main__
adj_list
p5084
(dp5085
g4
g5083
sg5
Nsg6
Nsg7
Nsg8
Nsg9
(lp5086
S'n116'
p5087
aS'n148'
p5088
aS'n178'
p5089
ag1835
ag1841
ag1906
ag1912
asbsS'n110'
p5090
(i__main__
adj_list
p5091
(dp5092
g4
g5090
sg5
Nsg6
Nsg7
Nsg8
Nsg9
(lp5093
S'n47'
p5094
aS'n119'
p5095
asbsS'n111'
p5096
(i__main__
adj_list
p5097
(dp5098
g4
g5096
sg5
Nsg6
Nsg7
Nsg8
Nsg9
(lp5099
g5094
ag5095
asbsS'n112'
p5100
(i__main__
adj_list
p5101
(dp5102
g4
g5100
sg5
Nsg6
Nsg7
Nsg8
Nsg9
(lp5103
g5094
aS'n111'
p5104
asbsS'n113'
p5105
(i__main__
adj_list
p5106
(dp5107
g4
g5105
sg5
Nsg6
Nsg7
Nsg8
Nsg9
(lp5108
g5094
ag5104
asbsS'n921'
p5109
(i__main__
adj_list
p5110
(dp5111
g4
g5109
sg5
Nsg6
Nsg7
Nsg8
Nsg9
(lp5112
g3260
ag3335
asbsS'n118'
p5113
(i__main__
adj_list
p5114
(dp5115
g4
g5113
sg5
Nsg6
Nsg7
Nsg8
Nsg9
(lp5116
g5087
aS'n114'
p5117
asbsS'n119'
p5118
(i__main__
adj_list
p5119
(dp5120
g4
g5118
sg5
Nsg6
Nsg7
Nsg8
Nsg9
(lp5121
g4163
ag4169
asbsS'n920'
p5122
(i__main__
adj_list
p5123
(dp5124
g4
g5122
sg5
Nsg6
Nsg7
Nsg8
Nsg9
(lp5125
g1686
ag4810
asbsS'n1075'
p5126
(i__main__
adj_list
p5127
(dp5128
g4
g5126
sg5
Nsg6
Nsg7
Nsg8
Nsg9
(lp5129
g319
ag320
asbsS'n931'
p5130
(i__main__
adj_list
p5131
(dp5132
g4
g5130
sg5
Nsg6
Nsg7
Nsg8
Nsg9
(lp5133
g3196
asbsS'n888'
p5134
(i__main__
adj_list
p5135
(dp5136
g4
g5134
sg5
Nsg6
Nsg7
Nsg8
Nsg9
(lp5137
g2899
aS'n902'
p5138
asbsS'n1287'
p5139
(i__main__
adj_list
p5140
(dp5141
g4
g5139
sg5
Nsg6
Nsg7
Nsg8
Nsg9
(lp5142
g3480
asbsS'n889'
p5143
(i__main__
adj_list
p5144
(dp5145
g4
g5143
sg5
Nsg6
Nsg7
Nsg8
Nsg9
(lp5146
g2899
ag5138
asbsS'n503'
p5147
(i__main__
adj_list
p5148
(dp5149
g4
g5147
sg5
Nsg6
Nsg7
Nsg8
Nsg9
(lp5150
g2651
ag3372
ag675
aS'n382'
p5151
asbsS'n502'
p5152
(i__main__
adj_list
p5153
(dp5154
g4
g5152
sg5
Nsg6
Nsg7
Nsg8
Nsg9
(lp5155
S'n500'
p5156
ag1681
ag2778
asbsS'n29'
p5157
(i__main__
adj_list
p5158
(dp5159
g4
g5157
sg5
Nsg6
Nsg7
Nsg8
Nsg9
(lp5160
S'n17'
p5161
asbsS'n28'
p5162
(i__main__
adj_list
p5163
(dp5164
g4
g5162
sg5
Nsg6
Nsg7
Nsg8
Nsg9
(lp5165
g5161
asbsS'n507'
p5166
(i__main__
adj_list
p5167
(dp5168
g4
g5166
sg5
Nsg6
Nsg7
Nsg8
Nsg9
(lp5169
S'n131'
p5170
asbsS'n506'
p5171
(i__main__
adj_list
p5172
(dp5173
g4
g5171
sg5
Nsg6
Nsg7
Nsg8
Nsg9
(lp5174
g522
asbsS'n505'
p5175
(i__main__
adj_list
p5176
(dp5177
g4
g5175
sg5
Nsg6
Nsg7
Nsg8
Nsg9
(lp5178
g522
ag863
asbsS'n504'
p5179
(i__main__
adj_list
p5180
(dp5181
g4
g5179
sg5
Nsg6
Nsg7
Nsg8
Nsg9
(lp5182
S'n385'
p5183
ag1306
ag1681
ag3372
ag4401
asbsS'n23'
p5184
(i__main__
adj_list
p5185
(dp5186
g4
g5184
sg5
Nsg6
Nsg7
Nsg8
Nsg9
(lp5187
S'n21'
p5188
aS'n18'
p5189
asbsS'n22'
p5190
(i__main__
adj_list
p5191
(dp5192
g4
g5190
sg5
Nsg6
Nsg7
Nsg8
Nsg9
(lp5193
g5188
ag5189
asbsS'n21'
p5194
(i__main__
adj_list
p5195
(dp5196
g4
g5194
sg5
Nsg6
Nsg7
Nsg8
Nsg9
(lp5197
g4208
asbsS'n20'
p5198
(i__main__
adj_list
p5199
(dp5200
g4
g5198
sg5
Nsg6
Nsg7
Nsg8
Nsg9
(lp5201
g4208
asbsS'n27'
p5202
(i__main__
adj_list
p5203
(dp5204
g4
g5202
sg5
Nsg6
Nsg7
Nsg8
Nsg9
(lp5205
S'n20'
p5206
aS'n41'
p5207
aS'n48'
p5208
asbsS'n26'
p5209
(i__main__
adj_list
p5210
(dp5211
g4
g5209
sg5
Nsg6
Nsg7
Nsg8
Nsg9
(lp5212
g5206
ag5207
ag5208
asbsS'n25'
p5213
(i__main__
adj_list
p5214
(dp5215
g4
g5213
sg5
Nsg6
Nsg7
Nsg8
Nsg9
(lp5216
g5188
aS'n19'
p5217
asbsS'n24'
p5218
(i__main__
adj_list
p5219
(dp5220
g4
g5218
sg5
Nsg6
Nsg7
Nsg8
Nsg9
(lp5221
g5188
ag5217
asbsS'n669'
p5222
(i__main__
adj_list
p5223
(dp5224
g4
g5222
sg5
Nsg6
Nsg7
Nsg8
Nsg9
(lp5225
g1844
ag1401
asbsS'n1134'
p5226
(i__main__
adj_list
p5227
(dp5228
g4
g5226
sg5
Nsg6
Nsg7
Nsg8
Nsg9
(lp5229
g3292
ag3293
asbsS'n147'
p5230
(i__main__
adj_list
p5231
(dp5232
g4
g5230
sg5
Nsg6
Nsg7
Nsg8
Nsg9
(lp5233
g5117
asbsg3140
(i__main__
adj_list
p5234
(dp5235
g4
g3140
sg5
Nsg6
Nsg7
Nsg8
Nsg9
(lp5236
sbsS'n943'
p5237
(i__main__
adj_list
p5238
(dp5239
g4
g5237
sg5
Nsg6
Nsg7
Nsg8
Nsg9
(lp5240
g4450
ag4758
asbsS'n1147'
p5241
(i__main__
adj_list
p5242
(dp5243
g4
g5241
sg5
Nsg6
Nsg7
Nsg8
Nsg9
(lp5244
g583
ag1540
asbsS'n766'
p5245
(i__main__
adj_list
p5246
(dp5247
g4
g5245
sg5
Nsg6
Nsg7
Nsg8
Nsg9
(lp5248
g3355
asbsS'n1151'
p5249
(i__main__
adj_list
p5250
(dp5251
g4
g5249
sg5
Nsg6
Nsg7
Nsg8
Nsg9
(lp5252
g4753
asbsS'n704'
p5253
(i__main__
adj_list
p5254
(dp5255
g4
g5253
sg5
Nsg6
Nsg7
Nsg8
Nsg9
(lp5256
g1360
aS'n706'
p5257
asbsS'n880'
p5258
(i__main__
adj_list
p5259
(dp5260
g4
g5258
sg5
Nsg6
Nsg7
Nsg8
Nsg9
(lp5261
S'n835'
p5262
asbsS'n887'
p5263
(i__main__
adj_list
p5264
(dp5265
g4
g5263
sg5
Nsg6
Nsg7
Nsg8
Nsg9
(lp5266
g2899
ag2900
asbsS'n1169'
p5267
(i__main__
adj_list
p5268
(dp5269
g4
g5267
sg5
Nsg6
Nsg7
Nsg8
Nsg9
(lp5270
S'n1147'
p5271
ag1424
asbsS'n881'
p5272
(i__main__
adj_list
p5273
(dp5274
g4
g5272
sg5
Nsg6
Nsg7
Nsg8
Nsg9
(lp5275
g5262
asbsS'n1129'
p5276
(i__main__
adj_list
p5277
(dp5278
g4
g5276
sg5
Nsg6
Nsg7
Nsg8
Nsg9
(lp5279
g341
aS'n1131'
p5280
asbsS'n750'
p5281
(i__main__
adj_list
p5282
(dp5283
g4
g5281
sg5
Nsg6
Nsg7
Nsg8
Nsg9
(lp5284
g1871
aS'n765'
p5285
asbsS'n1136'
p5286
(i__main__
adj_list
p5287
(dp5288
g4
g5286
sg5
Nsg6
Nsg7
Nsg8
Nsg9
(lp5289
g3292
ag3485
asbsS'\\U0/U0/IN2R[5]'
p5290
(i__main__
adj_list
p5291
(dp5292
g4
g5290
sg5
Nsg6
Nsg7
Nsg8
Nsg9
(lp5293
g2171
aS'n450'
p5294
ag244
aS'n545'
p5295
ag3313
ag3314
ag3535
aS'n1216'
p5296
ag3220
ag870
ag871
aS'n1253'
p5297
ag225
ag4066
ag1546
ag1391
asbsS'n966'
p5298
(i__main__
adj_list
p5299
(dp5300
g4
g5298
sg5
Nsg6
Nsg7
Nsg8
Nsg9
(lp5301
g2388
ag2389
asbsS'n941'
p5302
(i__main__
adj_list
p5303
(dp5304
g4
g5302
sg5
Nsg6
Nsg7
Nsg8
Nsg9
(lp5305
g2847
ag4672
asbsg4208
(i__main__
adj_list
p5306
(dp5307
g4
g4208
sg5
Nsg6
Nsg7
Nsg8
Nsg9
(lp5308
sbsS'n1093'
p5309
(i__main__
adj_list
p5310
(dp5311
g4
g5309
sg5
Nsg6
Nsg7
Nsg8
Nsg9
(lp5312
g2342
aS'n1140'
p5313
aS'n3'
p5314
asbsS'n1092'
p5315
(i__main__
adj_list
p5316
(dp5317
g4
g5315
sg5
Nsg6
Nsg7
Nsg8
Nsg9
(lp5318
g2342
ag5313
ag5314
asbsS'\\U0/U0/U1/IN1P[0]'
p5319
(i__main__
adj_list
p5320
(dp5321
g4
g5319
sg5
Nsg6
Nsg7
Nsg8
Nsg9
(lp5322
g936
ag54
ag937
ag2574
ag2705
aS'n1019'
p5323
ag4824
aS'n1070'
p5324
ag1516
ag2298
aS'n505'
p5325
aS'n1163'
p5326
ag3518
ag3988
ag825
ag826
ag5296
ag3220
ag3254
ag4565
ag2595
ag3255
ag3506
asbsS'n1289'
p5327
(i__main__
adj_list
p5328
(dp5329
g4
g5327
sg5
Nsg6
Nsg7
Nsg8
Nsg9
(lp5330
g347
ag3574
asbsS'n1091'
p5331
(i__main__
adj_list
p5332
(dp5333
g4
g5331
sg5
Nsg6
Nsg7
Nsg8
Nsg9
(lp5334
g5065
asbsS'n349'
p5335
(i__main__
adj_list
p5336
(dp5337
g4
g5335
sg5
Nsg6
Nsg7
Nsg8
Nsg9
(lp5338
g3660
asbsS'n348'
p5339
(i__main__
adj_list
p5340
(dp5341
g4
g5339
sg5
Nsg6
Nsg7
Nsg8
Nsg9
(lp5342
g4583
asbsS'n1024'
p5343
(i__main__
adj_list
p5344
(dp5345
g4
g5343
sg5
Nsg6
Nsg7
Nsg8
Nsg9
(lp5346
g4305
asbsS'n1025'
p5347
(i__main__
adj_list
p5348
(dp5349
g4
g5347
sg5
Nsg6
Nsg7
Nsg8
Nsg9
(lp5350
g443
ag444
asbsS'n1022'
p5351
(i__main__
adj_list
p5352
(dp5353
g4
g5351
sg5
Nsg6
Nsg7
Nsg8
Nsg9
(lp5354
g5323
ag1940
asbsS'n1023'
p5355
(i__main__
adj_list
p5356
(dp5357
g4
g5355
sg5
Nsg6
Nsg7
Nsg8
Nsg9
(lp5358
g3130
asbsS'n439'
p5359
(i__main__
adj_list
p5360
(dp5361
g4
g5359
sg5
Nsg6
Nsg7
Nsg8
Nsg9
(lp5362
g1323
asbsS'n438'
p5363
(i__main__
adj_list
p5364
(dp5365
g4
g5363
sg5
Nsg6
Nsg7
Nsg8
Nsg9
(lp5366
g2667
ag578
asbsS'n341'
p5367
(i__main__
adj_list
p5368
(dp5369
g4
g5367
sg5
Nsg6
Nsg7
Nsg8
Nsg9
(lp5370
S'n297'
p5371
asbsS'n340'
p5372
(i__main__
adj_list
p5373
(dp5374
g4
g5372
sg5
Nsg6
Nsg7
Nsg8
Nsg9
(lp5375
g4600
ag4601
asbsS'n343'
p5376
(i__main__
adj_list
p5377
(dp5378
g4
g5376
sg5
Nsg6
Nsg7
Nsg8
Nsg9
(lp5379
g2406
ag2502
asbsS'n342'
p5380
(i__main__
adj_list
p5381
(dp5382
g4
g5380
sg5
Nsg6
Nsg7
Nsg8
Nsg9
(lp5383
g5371
asbsS'n345'
p5384
(i__main__
adj_list
p5385
(dp5386
g4
g5384
sg5
Nsg6
Nsg7
Nsg8
Nsg9
(lp5387
g4724
asbsS'n344'
p5388
(i__main__
adj_list
p5389
(dp5390
g4
g5388
sg5
Nsg6
Nsg7
Nsg8
Nsg9
(lp5391
g1913
ag2497
asbsS'n347'
p5392
(i__main__
adj_list
p5393
(dp5394
g4
g5392
sg5
Nsg6
Nsg7
Nsg8
Nsg9
(lp5395
g4589
asbsS'n346'
p5396
(i__main__
adj_list
p5397
(dp5398
g4
g5396
sg5
Nsg6
Nsg7
Nsg8
Nsg9
(lp5399
g4729
asbsS'n535'
p5400
(i__main__
adj_list
p5401
(dp5402
g4
g5400
sg5
Nsg6
Nsg7
Nsg8
Nsg9
(lp5403
g539
ag540
asbsS'n945'
p5404
(i__main__
adj_list
p5405
(dp5406
g4
g5404
sg5
Nsg6
Nsg7
Nsg8
Nsg9
(lp5407
g1961
asbsS'n751'
p5408
(i__main__
adj_list
p5409
(dp5410
g4
g5408
sg5
Nsg6
Nsg7
Nsg8
Nsg9
(lp5411
g1871
ag5285
asbsS'n928'
p5412
(i__main__
adj_list
p5413
(dp5414
g4
g5412
sg5
Nsg6
Nsg7
Nsg8
Nsg9
(lp5415
g204
ag1230
ag1231
asbsS'n1095'
p5416
(i__main__
adj_list
p5417
(dp5418
g4
g5416
sg5
Nsg6
Nsg7
Nsg8
Nsg9
(lp5419
g329
asbsS'n756'
p5420
(i__main__
adj_list
p5421
(dp5422
g4
g5420
sg5
Nsg6
Nsg7
Nsg8
Nsg9
(lp5423
S'n704'
p5424
asbsS'n711'
p5425
(i__main__
adj_list
p5426
(dp5427
g4
g5425
sg5
Nsg6
Nsg7
Nsg8
Nsg9
(lp5428
g478
ag479
asbsg4431
(i__main__
adj_list
p5429
(dp5430
g4
g4431
sg5
Nsg6
Nsg7
Nsg8
Nsg9
(lp5431
sbsS'n757'
p5432
(i__main__
adj_list
p5433
(dp5434
g4
g5432
sg5
Nsg6
Nsg7
Nsg8
Nsg9
(lp5435
S'n682'
p5436
asbsS'n950'
p5437
(i__main__
adj_list
p5438
(dp5439
g4
g5437
sg5
Nsg6
Nsg7
Nsg8
Nsg9
(lp5440
g335
ag336
asbsS'n938'
p5441
(i__main__
adj_list
p5442
(dp5443
g4
g5441
sg5
Nsg6
Nsg7
Nsg8
Nsg9
(lp5444
g3240
asbsS'n939'
p5445
(i__main__
adj_list
p5446
(dp5447
g4
g5445
sg5
Nsg6
Nsg7
Nsg8
Nsg9
(lp5448
g669
asbsS'n978'
p5449
(i__main__
adj_list
p5450
(dp5451
g4
g5449
sg5
Nsg6
Nsg7
Nsg8
Nsg9
(lp5452
g2026
ag3898
asbsS'n1031'
p5453
(i__main__
adj_list
p5454
(dp5455
g4
g5453
sg5
Nsg6
Nsg7
Nsg8
Nsg9
(lp5456
g1991
ag1992
asbsS'n1142'
p5457
(i__main__
adj_list
p5458
(dp5459
g4
g5457
sg5
Nsg6
Nsg7
Nsg8
Nsg9
(lp5460
g908
ag893
asbsS'n932'
p5461
(i__main__
adj_list
p5462
(dp5463
g4
g5461
sg5
Nsg6
Nsg7
Nsg8
Nsg9
(lp5464
g3191
asbsS'n933'
p5465
(i__main__
adj_list
p5466
(dp5467
g4
g5465
sg5
Nsg6
Nsg7
Nsg8
Nsg9
(lp5468
g1765
asbsS'n930'
p5469
(i__main__
adj_list
p5470
(dp5471
g4
g5469
sg5
Nsg6
Nsg7
Nsg8
Nsg9
(lp5472
g3792
ag3793
asbsS'n554'
p5473
(i__main__
adj_list
p5474
(dp5475
g4
g5473
sg5
Nsg6
Nsg7
Nsg8
Nsg9
(lp5476
g2844
ag3709
asbsS'n936'
p5477
(i__main__
adj_list
p5478
(dp5479
g4
g5477
sg5
Nsg6
Nsg7
Nsg8
Nsg9
(lp5480
g1416
aS'n935'
p5481
asbsS'n937'
p5482
(i__main__
adj_list
p5483
(dp5484
g4
g5482
sg5
Nsg6
Nsg7
Nsg8
Nsg9
(lp5485
g290
asbsS'n532'
p5486
(i__main__
adj_list
p5487
(dp5488
g4
g5486
sg5
Nsg6
Nsg7
Nsg8
Nsg9
(lp5489
g930
ag4840
asbsS'n935'
p5490
(i__main__
adj_list
p5491
(dp5492
g4
g5490
sg5
Nsg6
Nsg7
Nsg8
Nsg9
(lp5493
g2413
aS'n953'
p5494
asbsS'n613'
p5495
(i__main__
adj_list
p5496
(dp5497
g4
g5495
sg5
Nsg6
Nsg7
Nsg8
Nsg9
(lp5498
g932
ag1521
asbsS'n612'
p5499
(i__main__
adj_list
p5500
(dp5501
g4
g5499
sg5
Nsg6
Nsg7
Nsg8
Nsg9
(lp5502
g3307
ag1526
asbsS'n1166'
p5503
(i__main__
adj_list
p5504
(dp5505
g4
g5503
sg5
Nsg6
Nsg7
Nsg8
Nsg9
(lp5506
S'n1148'
p5507
asbsS'n611'
p5508
(i__main__
adj_list
p5509
(dp5510
g4
g5508
sg5
Nsg6
Nsg7
Nsg8
Nsg9
(lp5511
g3870
asbsS'n971'
p5512
(i__main__
adj_list
p5513
(dp5514
g4
g5512
sg5
Nsg6
Nsg7
Nsg8
Nsg9
(lp5515
g3439
ag4322
asbsS'n235'
p5516
(i__main__
adj_list
p5517
(dp5518
g4
g5516
sg5
Nsg6
Nsg7
Nsg8
Nsg9
(lp5519
g4783
ag701
ag2673
ag2666
ag353
asbsS'n234'
p5520
(i__main__
adj_list
p5521
(dp5522
g4
g5520
sg5
Nsg6
Nsg7
Nsg8
Nsg9
(lp5523
S'n232'
p5524
ag2114
aS'n130'
p5525
asbsS'n237'
p5526
(i__main__
adj_list
p5527
(dp5528
g4
g5526
sg5
Nsg6
Nsg7
Nsg8
Nsg9
(lp5529
S'n229'
p5530
ag4487
asbsS'n236'
p5531
(i__main__
adj_list
p5532
(dp5533
g4
g5531
sg5
Nsg6
Nsg7
Nsg8
Nsg9
(lp5534
g5530
ag1309
asbsS'n231'
p5535
(i__main__
adj_list
p5536
(dp5537
g4
g5535
sg5
Nsg6
Nsg7
Nsg8
Nsg9
(lp5538
g2113
ag707
asbsS'n230'
p5539
(i__main__
adj_list
p5540
(dp5541
g4
g5539
sg5
Nsg6
Nsg7
Nsg8
Nsg9
(lp5542
g4158
asbsS'n233'
p5543
(i__main__
adj_list
p5544
(dp5545
g4
g5543
sg5
Nsg6
Nsg7
Nsg8
Nsg9
(lp5546
g5524
ag2114
ag5525
asbsS'n232'
p5547
(i__main__
adj_list
p5548
(dp5549
g4
g5547
sg5
Nsg6
Nsg7
Nsg8
Nsg9
(lp5550
g4773
asbsS'n555'
p5551
(i__main__
adj_list
p5552
(dp5553
g4
g5551
sg5
Nsg6
Nsg7
Nsg8
Nsg9
(lp5554
g4736
ag3704
asbsS'n239'
p5555
(i__main__
adj_list
p5556
(dp5557
g4
g5555
sg5
Nsg6
Nsg7
Nsg8
Nsg9
(lp5558
g3811
asbsS'n238'
p5559
(i__main__
adj_list
p5560
(dp5561
g4
g5559
sg5
Nsg6
Nsg7
Nsg8
Nsg9
(lp5562
g5530
ag4487
asbsS'n616'
p5563
(i__main__
adj_list
p5564
(dp5565
g4
g5563
sg5
Nsg6
Nsg7
Nsg8
Nsg9
(lp5566
g1208
ag1486
asbsS'n482'
p5567
(i__main__
adj_list
p5568
(dp5569
g4
g5567
sg5
Nsg6
Nsg7
Nsg8
Nsg9
(lp5570
S'n427'
p5571
aS'n484'
p5572
asbsS'n483'
p5573
(i__main__
adj_list
p5574
(dp5575
g4
g5573
sg5
Nsg6
Nsg7
Nsg8
Nsg9
(lp5576
g5571
ag5572
asbsS'n480'
p5577
(i__main__
adj_list
p5578
(dp5579
g4
g5577
sg5
Nsg6
Nsg7
Nsg8
Nsg9
(lp5580
g5571
aS'n482'
p5581
asbsS'n481'
p5582
(i__main__
adj_list
p5583
(dp5584
g4
g5582
sg5
Nsg6
Nsg7
Nsg8
Nsg9
(lp5585
g5571
ag5581
asbsS'\\U0/U0/U1/IN1P[10]'
p5586
(i__main__
adj_list
p5587
(dp5588
g4
g5586
sg5
Nsg6
Nsg7
Nsg8
Nsg9
(lp5589
g44
ag2568
ag4588
ag4822
ag4340
ag1508
ag4561
ag811
ag2589
ag814
ag3986
ag289
ag3515
aS'n213'
p5590
aS'n1001'
p5591
ag3124
ag4867
asbsS'n339'
p5592
(i__main__
adj_list
p5593
(dp5594
g4
g5592
sg5
Nsg6
Nsg7
Nsg8
Nsg9
(lp5595
g4595
asbsS'n484'
p5596
(i__main__
adj_list
p5597
(dp5598
g4
g5596
sg5
Nsg6
Nsg7
Nsg8
Nsg9
(lp5599
g2382
aS'n486'
p5600
asbsS'n485'
p5601
(i__main__
adj_list
p5602
(dp5603
g4
g5601
sg5
Nsg6
Nsg7
Nsg8
Nsg9
(lp5604
g2382
ag5600
asbsS'n334'
p5605
(i__main__
adj_list
p5606
(dp5607
g4
g5605
sg5
Nsg6
Nsg7
Nsg8
Nsg9
(lp5608
S'n253'
p5609
aS'n299'
p5610
asbsS'n335'
p5611
(i__main__
adj_list
p5612
(dp5613
g4
g5611
sg5
Nsg6
Nsg7
Nsg8
Nsg9
(lp5614
g5609
ag5610
asbsS'n336'
p5615
(i__main__
adj_list
p5616
(dp5617
g4
g5615
sg5
Nsg6
Nsg7
Nsg8
Nsg9
(lp5618
g5609
asbsS'n337'
p5619
(i__main__
adj_list
p5620
(dp5621
g4
g5619
sg5
Nsg6
Nsg7
Nsg8
Nsg9
(lp5622
g5609
ag2459
asbsS'n330'
p5623
(i__main__
adj_list
p5624
(dp5625
g4
g5623
sg5
Nsg6
Nsg7
Nsg8
Nsg9
(lp5626
S'n324'
p5627
ag5170
asbsS'n331'
p5628
(i__main__
adj_list
p5629
(dp5630
g4
g5628
sg5
Nsg6
Nsg7
Nsg8
Nsg9
(lp5631
g5627
ag2195
asbsS'n332'
p5632
(i__main__
adj_list
p5633
(dp5634
g4
g5632
sg5
Nsg6
Nsg7
Nsg8
Nsg9
(lp5635
g5627
ag5170
asbsS'n333'
p5636
(i__main__
adj_list
p5637
(dp5638
g4
g5636
sg5
Nsg6
Nsg7
Nsg8
Nsg9
(lp5639
g4677
ag2667
ag5156
ag5183
ag2120
asbsS'n806'
p5640
(i__main__
adj_list
p5641
(dp5642
g4
g5640
sg5
Nsg6
Nsg7
Nsg8
Nsg9
(lp5643
S'n803'
p5644
ag1708
asbsS'n807'
p5645
(i__main__
adj_list
p5646
(dp5647
g4
g5645
sg5
Nsg6
Nsg7
Nsg8
Nsg9
(lp5648
g1396
asbsS'n804'
p5649
(i__main__
adj_list
p5650
(dp5651
g4
g5649
sg5
Nsg6
Nsg7
Nsg8
Nsg9
(lp5652
g1241
aS'n917'
p5653
asbsS'n805'
p5654
(i__main__
adj_list
p5655
(dp5656
g4
g5654
sg5
Nsg6
Nsg7
Nsg8
Nsg9
(lp5657
g5644
ag1713
ag5653
asbsS'n802'
p5658
(i__main__
adj_list
p5659
(dp5660
g4
g5658
sg5
Nsg6
Nsg7
Nsg8
Nsg9
(lp5661
g1241
ag1242
asbsS'n803'
p5662
(i__main__
adj_list
p5663
(dp5664
g4
g5662
sg5
Nsg6
Nsg7
Nsg8
Nsg9
(lp5665
g1241
asbsS'n800'
p5666
(i__main__
adj_list
p5667
(dp5668
g4
g5666
sg5
Nsg6
Nsg7
Nsg8
Nsg9
(lp5669
g3385
ag2195
asbsS'n556'
p5670
(i__main__
adj_list
p5671
(dp5672
g4
g5670
sg5
Nsg6
Nsg7
Nsg8
Nsg9
(lp5673
g4341
asbsS'n530'
p5674
(i__main__
adj_list
p5675
(dp5676
g4
g5674
sg5
Nsg6
Nsg7
Nsg8
Nsg9
(lp5677
g2220
asbsS'n1249'
p5678
(i__main__
adj_list
p5679
(dp5680
g4
g5678
sg5
Nsg6
Nsg7
Nsg8
Nsg9
(lp5681
S'n1121'
p5682
asbsS'n808'
p5683
(i__main__
adj_list
p5684
(dp5685
g4
g5683
sg5
Nsg6
Nsg7
Nsg8
Nsg9
(lp5686
S'n749'
p5687
asbsS'n809'
p5688
(i__main__
adj_list
p5689
(dp5690
g4
g5688
sg5
Nsg6
Nsg7
Nsg8
Nsg9
(lp5691
g5687
asbsS'n626'
p5692
(i__main__
adj_list
p5693
(dp5694
g4
g5692
sg5
Nsg6
Nsg7
Nsg8
Nsg9
(lp5695
g262
ag1781
asbsS'n1153'
p5696
(i__main__
adj_list
p5697
(dp5698
g4
g5696
sg5
Nsg6
Nsg7
Nsg8
Nsg9
(lp5699
g2314
ag2315
ag2316
asbsS'n1172'
p5700
(i__main__
adj_list
p5701
(dp5702
g4
g5700
sg5
Nsg6
Nsg7
Nsg8
Nsg9
(lp5703
S'n1150'
p5704
ag4501
asbsS'n1178'
p5705
(i__main__
adj_list
p5706
(dp5707
g4
g5705
sg5
Nsg6
Nsg7
Nsg8
Nsg9
(lp5708
g4531
ag1596
asbsS'n1016'
p5709
(i__main__
adj_list
p5710
(dp5711
g4
g5709
sg5
Nsg6
Nsg7
Nsg8
Nsg9
(lp5712
g2292
ag2293
asbsg2120
(i__main__
adj_list
p5713
(dp5714
g4
g2120
sg5
Nsg6
Nsg7
Nsg8
Nsg9
(lp5715
sbsS'n1115'
p5716
(i__main__
adj_list
p5717
(dp5718
g4
g5716
sg5
Nsg6
Nsg7
Nsg8
Nsg9
(lp5719
g301
asbsS'n1213'
p5720
(i__main__
adj_list
p5721
(dp5722
g4
g5720
sg5
Nsg6
Nsg7
Nsg8
Nsg9
(lp5723
g2700
ag826
asbsS'n531'
p5724
(i__main__
adj_list
p5725
(dp5726
g4
g5724
sg5
Nsg6
Nsg7
Nsg8
Nsg9
(lp5727
g2424
ag4835
asbsS'n1051'
p5728
(i__main__
adj_list
p5729
(dp5730
g4
g5728
sg5
Nsg6
Nsg7
Nsg8
Nsg9
(lp5731
g1420
ag2287
asbsS'n729'
p5732
(i__main__
adj_list
p5733
(dp5734
g4
g5732
sg5
Nsg6
Nsg7
Nsg8
Nsg9
(lp5735
S'n726'
p5736
aS'n724'
p5737
asbsS'n728'
p5738
(i__main__
adj_list
p5739
(dp5740
g4
g5738
sg5
Nsg6
Nsg7
Nsg8
Nsg9
(lp5741
g5736
aS'n858'
p5742
aS'n860'
p5743
asbsS'n158'
p5744
(i__main__
adj_list
p5745
(dp5746
g4
g5744
sg5
Nsg6
Nsg7
Nsg8
Nsg9
(lp5747
g547
asbsS'n159'
p5748
(i__main__
adj_list
p5749
(dp5750
g4
g5748
sg5
Nsg6
Nsg7
Nsg8
Nsg9
(lp5751
S'n158'
p5752
asbsS'n655'
p5753
(i__main__
adj_list
p5754
(dp5755
g4
g5753
sg5
Nsg6
Nsg7
Nsg8
Nsg9
(lp5756
S'n653'
p5757
ag2484
aS'n513'
p5758
asbsS'n654'
p5759
(i__main__
adj_list
p5760
(dp5761
g4
g5759
sg5
Nsg6
Nsg7
Nsg8
Nsg9
(lp5762
g5757
ag2484
ag5758
asbsS'n653'
p5763
(i__main__
adj_list
p5764
(dp5765
g4
g5763
sg5
Nsg6
Nsg7
Nsg8
Nsg9
(lp5766
g2629
asbsS'n652'
p5767
(i__main__
adj_list
p5768
(dp5769
g4
g5767
sg5
Nsg6
Nsg7
Nsg8
Nsg9
(lp5770
g3373
aS'n516'
p5771
asbsS'n651'
p5772
(i__main__
adj_list
p5773
(dp5774
g4
g5772
sg5
Nsg6
Nsg7
Nsg8
Nsg9
(lp5775
g2970
asbsS'n650'
p5776
(i__main__
adj_list
p5777
(dp5778
g4
g5776
sg5
Nsg6
Nsg7
Nsg8
Nsg9
(lp5779
g1300
asbsS'n150'
p5780
(i__main__
adj_list
p5781
(dp5782
g4
g5780
sg5
Nsg6
Nsg7
Nsg8
Nsg9
(lp5783
g4820
ag2986
asbsS'n151'
p5784
(i__main__
adj_list
p5785
(dp5786
g4
g5784
sg5
Nsg6
Nsg7
Nsg8
Nsg9
(lp5787
g5088
ag5089
ag1082
ag1084
ag4447
ag4448
ag736
ag1413
asbsS'n152'
p5788
(i__main__
adj_list
p5789
(dp5790
g4
g5788
sg5
Nsg6
Nsg7
Nsg8
Nsg9
(lp5791
g5088
ag3029
asbsS'n153'
p5792
(i__main__
adj_list
p5793
(dp5794
g4
g5792
sg5
Nsg6
Nsg7
Nsg8
Nsg9
(lp5795
S'n103'
p5796
asbsS'n154'
p5797
(i__main__
adj_list
p5798
(dp5799
g4
g5797
sg5
Nsg6
Nsg7
Nsg8
Nsg9
(lp5800
S'n107'
p5801
aS'n157'
p5802
asbsS'n155'
p5803
(i__main__
adj_list
p5804
(dp5805
g4
g5803
sg5
Nsg6
Nsg7
Nsg8
Nsg9
(lp5806
g5801
ag5802
asbsS'n156'
p5807
(i__main__
adj_list
p5808
(dp5809
g4
g5807
sg5
Nsg6
Nsg7
Nsg8
Nsg9
(lp5810
g5801
aS'n106'
p5811
asbsS'n157'
p5812
(i__main__
adj_list
p5813
(dp5814
g4
g5812
sg5
Nsg6
Nsg7
Nsg8
Nsg9
(lp5815
g5801
ag5811
asbsS'n67'
p5816
(i__main__
adj_list
p5817
(dp5818
g4
g5816
sg5
Nsg6
Nsg7
Nsg8
Nsg9
(lp5819
g3119
asbsS'n66'
p5820
(i__main__
adj_list
p5821
(dp5822
g4
g5820
sg5
Nsg6
Nsg7
Nsg8
Nsg9
(lp5823
g4951
asbsS'n65'
p5824
(i__main__
adj_list
p5825
(dp5826
g4
g5824
sg5
Nsg6
Nsg7
Nsg8
Nsg9
(lp5827
g135
asbsS'n64'
p5828
(i__main__
adj_list
p5829
(dp5830
g4
g5828
sg5
Nsg6
Nsg7
Nsg8
Nsg9
(lp5831
S'n60'
p5832
ag5752
asbsS'n63'
p5833
(i__main__
adj_list
p5834
(dp5835
g4
g5833
sg5
Nsg6
Nsg7
Nsg8
Nsg9
(lp5836
g5832
ag5752
asbsS'n62'
p5837
(i__main__
adj_list
p5838
(dp5839
g4
g5837
sg5
Nsg6
Nsg7
Nsg8
Nsg9
(lp5840
g5832
ag4678
asbsS'n61'
p5841
(i__main__
adj_list
p5842
(dp5843
g4
g5841
sg5
Nsg6
Nsg7
Nsg8
Nsg9
(lp5844
g141
ag143
ag547
asbsS'n60'
p5845
(i__main__
adj_list
p5846
(dp5847
g4
g5845
sg5
Nsg6
Nsg7
Nsg8
Nsg9
(lp5848
g141
asbsS'n1168'
p5849
(i__main__
adj_list
p5850
(dp5851
g4
g5849
sg5
Nsg6
Nsg7
Nsg8
Nsg9
(lp5852
g1181
asbsS'n1261'
p5853
(i__main__
adj_list
p5854
(dp5855
g4
g5853
sg5
Nsg6
Nsg7
Nsg8
Nsg9
(lp5856
g3254
ag1339
asbsS'n1170'
p5857
(i__main__
adj_list
p5858
(dp5859
g4
g5857
sg5
Nsg6
Nsg7
Nsg8
Nsg9
(lp5860
g5271
asbsS'n1107'
p5861
(i__main__
adj_list
p5862
(dp5863
g4
g5861
sg5
Nsg6
Nsg7
Nsg8
Nsg9
(lp5864
g1422
ag4715
asbsS'n69'
p5865
(i__main__
adj_list
p5866
(dp5867
g4
g5865
sg5
Nsg6
Nsg7
Nsg8
Nsg9
(lp5868
g1040
aS'n46'
p5869
asbsS'n68'
p5870
(i__main__
adj_list
p5871
(dp5872
g4
g5870
sg5
Nsg6
Nsg7
Nsg8
Nsg9
(lp5873
g1040
ag5869
asbsS'n1117'
p5874
(i__main__
adj_list
p5875
(dp5876
g4
g5874
sg5
Nsg6
Nsg7
Nsg8
Nsg9
(lp5877
g861
ag2905
asbsS'n723'
p5878
(i__main__
adj_list
p5879
(dp5880
g4
g5878
sg5
Nsg6
Nsg7
Nsg8
Nsg9
(lp5881
g2193
aS'n642'
p5882
asbsg144
(i__main__
adj_list
p5883
(dp5884
g4
g144
sg5
Nsg6
Nsg7
Nsg8
Nsg9
(lp5885
sbsS'n1106'
p5886
(i__main__
adj_list
p5887
(dp5888
g4
g5886
sg5
Nsg6
Nsg7
Nsg8
Nsg9
(lp5889
g2851
ag2321
asbsS'n722'
p5890
(i__main__
adj_list
p5891
(dp5892
g4
g5890
sg5
Nsg6
Nsg7
Nsg8
Nsg9
(lp5893
g2193
ag5882
asbsS'n1101'
p5894
(i__main__
adj_list
p5895
(dp5896
g4
g5894
sg5
Nsg6
Nsg7
Nsg8
Nsg9
(lp5897
g1946
asbsS'n1205'
p5898
(i__main__
adj_list
p5899
(dp5900
g4
g5898
sg5
Nsg6
Nsg7
Nsg8
Nsg9
(lp5901
g1551
ag3316
asbsS'n488'
p5902
(i__main__
adj_list
p5903
(dp5904
g4
g5902
sg5
Nsg6
Nsg7
Nsg8
Nsg9
(lp5905
g4090
aS'n490'
p5906
asbsS'n1100'
p5907
(i__main__
adj_list
p5908
(dp5909
g4
g5907
sg5
Nsg6
Nsg7
Nsg8
Nsg9
(lp5910
g2230
ag2085
asbsS'n1267'
p5911
(i__main__
adj_list
p5912
(dp5913
g4
g5911
sg5
Nsg6
Nsg7
Nsg8
Nsg9
(lp5914
g2214
ag2919
asbsS'n994'
p5915
(i__main__
adj_list
p5916
(dp5917
g4
g5915
sg5
Nsg6
Nsg7
Nsg8
Nsg9
(lp5918
S'n991'
p5919
aS'n1079'
p5920
aS'n1080'
p5921
asbsS'n489'
p5922
(i__main__
adj_list
p5923
(dp5924
g4
g5922
sg5
Nsg6
Nsg7
Nsg8
Nsg9
(lp5925
g4090
ag5906
asbsS'n303'
p5926
(i__main__
adj_list
p5927
(dp5928
g4
g5926
sg5
Nsg6
Nsg7
Nsg8
Nsg9
(lp5929
g4642
asbsS'n727'
p5930
(i__main__
adj_list
p5931
(dp5932
g4
g5930
sg5
Nsg6
Nsg7
Nsg8
Nsg9
(lp5933
S'n641'
p5934
ag5743
asbsS'n1171'
p5935
(i__main__
adj_list
p5936
(dp5937
g4
g5935
sg5
Nsg6
Nsg7
Nsg8
Nsg9
(lp5938
g5704
ag4501
asbsS'n269'
p5939
(i__main__
adj_list
p5940
(dp5941
g4
g5939
sg5
Nsg6
Nsg7
Nsg8
Nsg9
(lp5942
S'n267'
p5943
aS'n266'
p5944
asbsS'n317'
p5945
(i__main__
adj_list
p5946
(dp5947
g4
g5945
sg5
Nsg6
Nsg7
Nsg8
Nsg9
(lp5948
g2797
ag2836
asbsS'n1239'
p5949
(i__main__
adj_list
p5950
(dp5951
g4
g5949
sg5
Nsg6
Nsg7
Nsg8
Nsg9
(lp5952
S'n1230'
p5953
ag3520
asbsS'n726'
p5954
(i__main__
adj_list
p5955
(dp5956
g4
g5954
sg5
Nsg6
Nsg7
Nsg8
Nsg9
(lp5957
g5934
asbsS'n1156'
p5958
(i__main__
adj_list
p5959
(dp5960
g4
g5958
sg5
Nsg6
Nsg7
Nsg8
Nsg9
(lp5961
S'n1142'
p5962
asbsS'n1128'
p5963
(i__main__
adj_list
p5964
(dp5965
g4
g5963
sg5
Nsg6
Nsg7
Nsg8
Nsg9
(lp5966
g1755
ag1756
asbsS'n1238'
p5967
(i__main__
adj_list
p5968
(dp5969
g4
g5967
sg5
Nsg6
Nsg7
Nsg8
Nsg9
(lp5970
g5953
asbsS'n1225'
p5971
(i__main__
adj_list
p5972
(dp5973
g4
g5971
sg5
Nsg6
Nsg7
Nsg8
Nsg9
(lp5974
g1956
aS'n1219'
p5975
asbsS'n725'
p5976
(i__main__
adj_list
p5977
(dp5978
g4
g5976
sg5
Nsg6
Nsg7
Nsg8
Nsg9
(lp5979
g5934
aS'n655'
p5980
asbsS'n990'
p5981
(i__main__
adj_list
p5982
(dp5983
g4
g5981
sg5
Nsg6
Nsg7
Nsg8
Nsg9
(lp5984
g2623
ag4288
asbsS'n1245'
p5985
(i__main__
adj_list
p5986
(dp5987
g4
g5985
sg5
Nsg6
Nsg7
Nsg8
Nsg9
(lp5988
S'n1225'
p5989
ag830
asbsS'n724'
p5990
(i__main__
adj_list
p5991
(dp5992
g4
g5990
sg5
Nsg6
Nsg7
Nsg8
Nsg9
(lp5993
g5934
ag5980
asbsS'n552'
p5994
(i__main__
adj_list
p5995
(dp5996
g4
g5994
sg5
Nsg6
Nsg7
Nsg8
Nsg9
(lp5997
S'n481'
p5998
asbsg2248
(i__main__
adj_list
p5999
(dp6000
g4
g2248
sg5
Nsg6
Nsg7
Nsg8
Nsg9
(lp6001
sbsS'n1243'
p6002
(i__main__
adj_list
p6003
(dp6004
g4
g6002
sg5
Nsg6
Nsg7
Nsg8
Nsg9
(lp6005
g473
ag871
asbsS'\\U0/U0/U1/IN1P[14]'
p6006
(i__main__
adj_list
p6007
(dp6008
g4
g6006
sg5
Nsg6
Nsg7
Nsg8
Nsg9
(lp6009
g40
ag921
ag2566
ag4820
ag4821
aS'n169'
p6010
ag607
ag1505
ag4560
ag3245
ag805
ag2587
ag807
ag5294
ag3985
ag1628
ag3514
ag3569
aS'n735'
p6011
ag742
ag4866
asbsS'n262'
p6012
(i__main__
adj_list
p6013
(dp6014
g4
g6012
sg5
Nsg6
Nsg7
Nsg8
Nsg9
(lp6015
g4623
ag4647
asbsS'n1240'
p6016
(i__main__
adj_list
p6017
(dp6018
g4
g6016
sg5
Nsg6
Nsg7
Nsg8
Nsg9
(lp6019
g2242
asbsS'n263'
p6020
(i__main__
adj_list
p6021
(dp6022
g4
g6020
sg5
Nsg6
Nsg7
Nsg8
Nsg9
(lp6023
g4623
ag4624
asbsS'n473'
p6024
(i__main__
adj_list
p6025
(dp6026
g4
g6024
sg5
Nsg6
Nsg7
Nsg8
Nsg9
(lp6027
S'n396'
p6028
asbsS'n472'
p6029
(i__main__
adj_list
p6030
(dp6031
g4
g6029
sg5
Nsg6
Nsg7
Nsg8
Nsg9
(lp6032
g6028
asbsS'n471'
p6033
(i__main__
adj_list
p6034
(dp6035
g4
g6033
sg5
Nsg6
Nsg7
Nsg8
Nsg9
(lp6036
g399
asbsS'n470'
p6037
(i__main__
adj_list
p6038
(dp6039
g4
g6037
sg5
Nsg6
Nsg7
Nsg8
Nsg9
(lp6040
g415
asbsS'n477'
p6041
(i__main__
adj_list
p6042
(dp6043
g4
g6041
sg5
Nsg6
Nsg7
Nsg8
Nsg9
(lp6044
S'n425'
p6045
aS'n492'
p6046
asbsS'n476'
p6047
(i__main__
adj_list
p6048
(dp6049
g4
g6047
sg5
Nsg6
Nsg7
Nsg8
Nsg9
(lp6050
g6045
ag6046
asbsS'n475'
p6051
(i__main__
adj_list
p6052
(dp6053
g4
g6051
sg5
Nsg6
Nsg7
Nsg8
Nsg9
(lp6054
g928
ag2225
asbsS'n474'
p6055
(i__main__
adj_list
p6056
(dp6057
g4
g6055
sg5
Nsg6
Nsg7
Nsg8
Nsg9
(lp6058
g4734
ag2277
asbsS'n1185'
p6059
(i__main__
adj_list
p6060
(dp6061
g4
g6059
sg5
Nsg6
Nsg7
Nsg8
Nsg9
(lp6062
g5050
asbsS'n1184'
p6063
(i__main__
adj_list
p6064
(dp6065
g4
g6063
sg5
Nsg6
Nsg7
Nsg8
Nsg9
(lp6066
g2604
asbsS'n479'
p6067
(i__main__
adj_list
p6068
(dp6069
g4
g6067
sg5
Nsg6
Nsg7
Nsg8
Nsg9
(lp6070
g6045
aS'n477'
p6071
asbsS'n478'
p6072
(i__main__
adj_list
p6073
(dp6074
g4
g6072
sg5
Nsg6
Nsg7
Nsg8
Nsg9
(lp6075
g6045
ag6071
asbsS'n1181'
p6076
(i__main__
adj_list
p6077
(dp6078
g4
g6076
sg5
Nsg6
Nsg7
Nsg8
Nsg9
(lp6079
S'n1159'
p6080
asbsS'n553'
p6081
(i__main__
adj_list
p6082
(dp6083
g4
g6081
sg5
Nsg6
Nsg7
Nsg8
Nsg9
(lp6084
g5998
asbsS'n1157'
p6085
(i__main__
adj_list
p6086
(dp6087
g4
g6085
sg5
Nsg6
Nsg7
Nsg8
Nsg9
(lp6088
g640
ag641
ag642
asbsS'n1182'
p6089
(i__main__
adj_list
p6090
(dp6091
g4
g6089
sg5
Nsg6
Nsg7
Nsg8
Nsg9
(lp6092
g6080
ag4869
asbsS'n578'
p6093
(i__main__
adj_list
p6094
(dp6095
g4
g6093
sg5
Nsg6
Nsg7
Nsg8
Nsg9
(lp6096
g3694
aS'n580'
p6097
asbsS'n579'
p6098
(i__main__
adj_list
p6099
(dp6100
g4
g6098
sg5
Nsg6
Nsg7
Nsg8
Nsg9
(lp6101
g3694
ag6097
asbsS'n1244'
p6102
(i__main__
adj_list
p6103
(dp6104
g4
g6102
sg5
Nsg6
Nsg7
Nsg8
Nsg9
(lp6105
g5989
asbsS'n7'
p6106
(i__main__
adj_list
p6107
(dp6108
g4
g6106
sg5
Nsg6
Nsg7
Nsg8
Nsg9
(lp6109
S'n5'
p6110
ag999
ag4432
asbsS'n572'
p6111
(i__main__
adj_list
p6112
(dp6113
g4
g6111
sg5
Nsg6
Nsg7
Nsg8
Nsg9
(lp6114
S'n446'
p6115
aS'n576'
p6116
asbsS'n573'
p6117
(i__main__
adj_list
p6118
(dp6119
g4
g6117
sg5
Nsg6
Nsg7
Nsg8
Nsg9
(lp6120
g6115
ag6116
asbsS'n570'
p6121
(i__main__
adj_list
p6122
(dp6123
g4
g6121
sg5
Nsg6
Nsg7
Nsg8
Nsg9
(lp6124
g6115
aS'n572'
p6125
asbsS'n571'
p6126
(i__main__
adj_list
p6127
(dp6128
g4
g6126
sg5
Nsg6
Nsg7
Nsg8
Nsg9
(lp6129
g6115
ag6125
asbsS'n576'
p6130
(i__main__
adj_list
p6131
(dp6132
g4
g6130
sg5
Nsg6
Nsg7
Nsg8
Nsg9
(lp6133
g2936
aS'n501'
p6134
asbsS'n577'
p6135
(i__main__
adj_list
p6136
(dp6137
g4
g6135
sg5
Nsg6
Nsg7
Nsg8
Nsg9
(lp6138
g2936
ag6134
asbsS'\\U0/U0/U1/IN1P[4]'
p6139
(i__main__
adj_list
p6140
(dp6141
g4
g6139
sg5
Nsg6
Nsg7
Nsg8
Nsg9
(lp6142
g930
ag50
ag931
ag2572
ag3354
aS'n752'
p6143
ag4823
aS'n833'
p6144
ag1060
ag1513
ag295
ag4564
ag3252
ag821
ag2593
ag3535
ag824
ag4868
ag4869
aS'n1236'
p6145
ag5297
ag3989
ag3573
ag3574
ag3521
ag3522
asbsS'n575'
p6146
(i__main__
adj_list
p6147
(dp6148
g4
g6146
sg5
Nsg6
Nsg7
Nsg8
Nsg9
(lp6149
g2936
ag2937
asbsS'n1227'
p6150
(i__main__
adj_list
p6151
(dp6152
g4
g6150
sg5
Nsg6
Nsg7
Nsg8
Nsg9
(lp6153
g467
ag468
asbsS'n1130'
p6154
(i__main__
adj_list
p6155
(dp6156
g4
g6154
sg5
Nsg6
Nsg7
Nsg8
Nsg9
(lp6157
g341
ag5280
asbsS'\\U0/U0/IN2R[1]'
p6158
(i__main__
adj_list
p6159
(dp6160
g4
g6158
sg5
Nsg6
Nsg7
Nsg8
Nsg9
(lp6161
g2175
ag6011
ag250
ag2412
ag3503
ag5591
ag2850
ag5325
ag864
ag1541
ag4065
ag6145
ag190
ag4739
ag2437
ag3322
asbsS'n1019'
p6162
(i__main__
adj_list
p6163
(dp6164
g4
g6162
sg5
Nsg6
Nsg7
Nsg8
Nsg9
(lp6165
g1149
asbsS'n1190'
p6166
(i__main__
adj_list
p6167
(dp6168
g4
g6166
sg5
Nsg6
Nsg7
Nsg8
Nsg9
(lp6169
g2337
ag197
asbsS'n1234'
p6170
(i__main__
adj_list
p6171
(dp6172
g4
g6170
sg5
Nsg6
Nsg7
Nsg8
Nsg9
(lp6173
g3806
asbsS'n1248'
p6174
(i__main__
adj_list
p6175
(dp6176
g4
g6174
sg5
Nsg6
Nsg7
Nsg8
Nsg9
(lp6177
g5682
asbsS'n1035'
p6178
(i__main__
adj_list
p6179
(dp6180
g4
g6178
sg5
Nsg6
Nsg7
Nsg8
Nsg9
(lp6181
g3229
ag3600
asbsS'n1140'
p6182
(i__main__
adj_list
p6183
(dp6184
g4
g6182
sg5
Nsg6
Nsg7
Nsg8
Nsg9
(lp6185
g2074
asbsS'n1071'
p6186
(i__main__
adj_list
p6187
(dp6188
g4
g6186
sg5
Nsg6
Nsg7
Nsg8
Nsg9
(lp6189
g1617
ag4907
asbsS'n1155'
p6190
(i__main__
adj_list
p6191
(dp6192
g4
g6190
sg5
Nsg6
Nsg7
Nsg8
Nsg9
(lp6193
g5962
ag642
asbsS'n1037'
p6194
(i__main__
adj_list
p6195
(dp6196
g4
g6194
sg5
Nsg6
Nsg7
Nsg8
Nsg9
(lp6197
g3229
ag3230
asbsS'n680'
p6198
(i__main__
adj_list
p6199
(dp6200
g4
g6198
sg5
Nsg6
Nsg7
Nsg8
Nsg9
(lp6201
S'n619'
p6202
asbsS'n681'
p6203
(i__main__
adj_list
p6204
(dp6205
g4
g6203
sg5
Nsg6
Nsg7
Nsg8
Nsg9
(lp6206
g6202
asbsS'n682'
p6207
(i__main__
adj_list
p6208
(dp6209
g4
g6207
sg5
Nsg6
Nsg7
Nsg8
Nsg9
(lp6210
g4562
ag5424
asbsS'n683'
p6211
(i__main__
adj_list
p6212
(dp6213
g4
g6211
sg5
Nsg6
Nsg7
Nsg8
Nsg9
(lp6214
g3308
ag5436
asbsS'n684'
p6215
(i__main__
adj_list
p6216
(dp6217
g4
g6215
sg5
Nsg6
Nsg7
Nsg8
Nsg9
(lp6218
g3719
asbsS'n685'
p6219
(i__main__
adj_list
p6220
(dp6221
g4
g6219
sg5
Nsg6
Nsg7
Nsg8
Nsg9
(lp6222
g3714
asbsS'n686'
p6223
(i__main__
adj_list
p6224
(dp6225
g4
g6223
sg5
Nsg6
Nsg7
Nsg8
Nsg9
(lp6226
S'n621'
p6227
aS'n688'
p6228
asbsS'n687'
p6229
(i__main__
adj_list
p6230
(dp6231
g4
g6229
sg5
Nsg6
Nsg7
Nsg8
Nsg9
(lp6232
g6227
ag6228
asbsS'n688'
p6233
(i__main__
adj_list
p6234
(dp6235
g4
g6233
sg5
Nsg6
Nsg7
Nsg8
Nsg9
(lp6236
g6227
aS'n690'
p6237
asbsS'n689'
p6238
(i__main__
adj_list
p6239
(dp6240
g4
g6238
sg5
Nsg6
Nsg7
Nsg8
Nsg9
(lp6241
g6227
ag6237
asbsS'n1030'
p6242
(i__main__
adj_list
p6243
(dp6244
g4
g6242
sg5
Nsg6
Nsg7
Nsg8
Nsg9
(lp6245
g1991
ag2143
asbsS'n279'
p6246
(i__main__
adj_list
p6247
(dp6248
g4
g6246
sg5
Nsg6
Nsg7
Nsg8
Nsg9
(lp6249
g4767
ag4116
asbsS'n278'
p6250
(i__main__
adj_list
p6251
(dp6252
g4
g6250
sg5
Nsg6
Nsg7
Nsg8
Nsg9
(lp6253
S'n162'
p6254
aS'n234'
p6255
asbsS'n372'
p6256
(i__main__
adj_list
p6257
(dp6258
g4
g6256
sg5
Nsg6
Nsg7
Nsg8
Nsg9
(lp6259
g1602
ag3970
asbsS'n373'
p6260
(i__main__
adj_list
p6261
(dp6262
g4
g6260
sg5
Nsg6
Nsg7
Nsg8
Nsg9
(lp6263
S'n281'
p6264
aS'n376'
p6265
asbsS'n374'
p6266
(i__main__
adj_list
p6267
(dp6268
g4
g6266
sg5
Nsg6
Nsg7
Nsg8
Nsg9
(lp6269
g6264
ag6265
asbsS'n375'
p6270
(i__main__
adj_list
p6271
(dp6272
g4
g6270
sg5
Nsg6
Nsg7
Nsg8
Nsg9
(lp6273
g6264
aS'n329'
p6274
asbsS'n376'
p6275
(i__main__
adj_list
p6276
(dp6277
g4
g6275
sg5
Nsg6
Nsg7
Nsg8
Nsg9
(lp6278
g6264
ag6274
asbsS'n377'
p6279
(i__main__
adj_list
p6280
(dp6281
g4
g6279
sg5
Nsg6
Nsg7
Nsg8
Nsg9
(lp6282
g4793
asbsS'n271'
p6283
(i__main__
adj_list
p6284
(dp6285
g4
g6283
sg5
Nsg6
Nsg7
Nsg8
Nsg9
(lp6286
S'n226'
p6287
aS'n273'
p6288
asbsS'n270'
p6289
(i__main__
adj_list
p6290
(dp6291
g4
g6289
sg5
Nsg6
Nsg7
Nsg8
Nsg9
(lp6292
g5943
aS'n294'
p6293
aS'n319'
p6294
asbsS'n273'
p6295
(i__main__
adj_list
p6296
(dp6297
g4
g6295
sg5
Nsg6
Nsg7
Nsg8
Nsg9
(lp6298
g6287
aS'n269'
p6299
asbsS'n272'
p6300
(i__main__
adj_list
p6301
(dp6302
g4
g6300
sg5
Nsg6
Nsg7
Nsg8
Nsg9
(lp6303
g6287
ag6288
asbsS'n275'
p6304
(i__main__
adj_list
p6305
(dp6306
g4
g6304
sg5
Nsg6
Nsg7
Nsg8
Nsg9
(lp6307
g6254
aS'n278'
p6308
asbsS'n274'
p6309
(i__main__
adj_list
p6310
(dp6311
g4
g6309
sg5
Nsg6
Nsg7
Nsg8
Nsg9
(lp6312
g6287
ag6299
asbsS'n277'
p6313
(i__main__
adj_list
p6314
(dp6315
g4
g6313
sg5
Nsg6
Nsg7
Nsg8
Nsg9
(lp6316
g6254
ag6255
asbsS'n276'
p6317
(i__main__
adj_list
p6318
(dp6319
g4
g6317
sg5
Nsg6
Nsg7
Nsg8
Nsg9
(lp6320
g6254
ag6308
asbsS'n424'
p6321
(i__main__
adj_list
p6322
(dp6323
g4
g6321
sg5
Nsg6
Nsg7
Nsg8
Nsg9
(lp6324
g4829
aS'n426'
p6325
asbsS'n1033'
p6326
(i__main__
adj_list
p6327
(dp6328
g4
g6326
sg5
Nsg6
Nsg7
Nsg8
Nsg9
(lp6329
g2706
asbsS'n1164'
p6330
(i__main__
adj_list
p6331
(dp6332
g4
g6330
sg5
Nsg6
Nsg7
Nsg8
Nsg9
(lp6333
g1432
asbsS'n769'
p6334
(i__main__
adj_list
p6335
(dp6336
g4
g6334
sg5
Nsg6
Nsg7
Nsg8
Nsg9
(lp6337
S'n697'
p6338
asbsS'n425'
p6339
(i__main__
adj_list
p6340
(dp6341
g4
g6339
sg5
Nsg6
Nsg7
Nsg8
Nsg9
(lp6342
g4829
ag6325
asbsS'n1163'
p6343
(i__main__
adj_list
p6344
(dp6345
g4
g6343
sg5
Nsg6
Nsg7
Nsg8
Nsg9
(lp6346
S'n1161'
p6347
ag1423
ag1424
asbsS'n426'
p6348
(i__main__
adj_list
p6349
(dp6350
g4
g6348
sg5
Nsg6
Nsg7
Nsg8
Nsg9
(lp6351
g4829
ag4830
asbsg462
(i__main__
adj_list
p6352
(dp6353
g4
g462
sg5
Nsg6
Nsg7
Nsg8
Nsg9
(lp6354
sbsS'n1162'
p6355
(i__main__
adj_list
p6356
(dp6357
g4
g6355
sg5
Nsg6
Nsg7
Nsg8
Nsg9
(lp6358
g6347
ag5507
asbsS'n297'
p6359
(i__main__
adj_list
p6360
(dp6361
g4
g6359
sg5
Nsg6
Nsg7
Nsg8
Nsg9
(lp6362
S'n274'
p6363
aS'n301'
p6364
asbsS'n296'
p6365
(i__main__
adj_list
p6366
(dp6367
g4
g6365
sg5
Nsg6
Nsg7
Nsg8
Nsg9
(lp6368
g6363
ag6364
asbsS'n295'
p6369
(i__main__
adj_list
p6370
(dp6371
g4
g6369
sg5
Nsg6
Nsg7
Nsg8
Nsg9
(lp6372
g6293
ag6294
asbsS'n294'
p6373
(i__main__
adj_list
p6374
(dp6375
g4
g6373
sg5
Nsg6
Nsg7
Nsg8
Nsg9
(lp6376
g5944
asbsS'n293'
p6377
(i__main__
adj_list
p6378
(dp6379
g4
g6377
sg5
Nsg6
Nsg7
Nsg8
Nsg9
(lp6380
S'n240'
p6381
aS'n254'
p6382
asbsS'n292'
p6383
(i__main__
adj_list
p6384
(dp6385
g4
g6383
sg5
Nsg6
Nsg7
Nsg8
Nsg9
(lp6386
g6381
ag6382
asbsS'n291'
p6387
(i__main__
adj_list
p6388
(dp6389
g4
g6387
sg5
Nsg6
Nsg7
Nsg8
Nsg9
(lp6390
g614
asbsS'n290'
p6391
(i__main__
adj_list
p6392
(dp6393
g4
g6391
sg5
Nsg6
Nsg7
Nsg8
Nsg9
(lp6394
g608
asbsS'n420'
p6395
(i__main__
adj_list
p6396
(dp6397
g4
g6395
sg5
Nsg6
Nsg7
Nsg8
Nsg9
(lp6398
g5059
ag5060
asbsS'n799'
p6399
(i__main__
adj_list
p6400
(dp6401
g4
g6399
sg5
Nsg6
Nsg7
Nsg8
Nsg9
(lp6402
g3374
ag1096
ag3475
asbsS'n942'
p6403
(i__main__
adj_list
p6404
(dp6405
g4
g6403
sg5
Nsg6
Nsg7
Nsg8
Nsg9
(lp6406
g4450
ag4451
ag1422
ag1425
asbsS'n299'
p6407
(i__main__
adj_list
p6408
(dp6409
g4
g6407
sg5
Nsg6
Nsg7
Nsg8
Nsg9
(lp6410
g6363
aS'n340'
p6411
asbsS'n298'
p6412
(i__main__
adj_list
p6413
(dp6414
g4
g6412
sg5
Nsg6
Nsg7
Nsg8
Nsg9
(lp6415
g6363
asbsS'n768'
p6416
(i__main__
adj_list
p6417
(dp6418
g4
g6416
sg5
Nsg6
Nsg7
Nsg8
Nsg9
(lp6419
g6338
asbsS'n422'
p6420
(i__main__
adj_list
p6421
(dp6422
g4
g6420
sg5
Nsg6
Nsg7
Nsg8
Nsg9
(lp6423
g5059
aS'n412'
p6424
asbsg4678
(i__main__
adj_list
p6425
(dp6426
g4
g4678
sg5
Nsg6
Nsg7
Nsg8
Nsg9
(lp6427
sbsS'n964'
p6428
(i__main__
adj_list
p6429
(dp6430
g4
g6428
sg5
Nsg6
Nsg7
Nsg8
Nsg9
(lp6431
g2388
ag3975
asbsS'n423'
p6432
(i__main__
adj_list
p6433
(dp6434
g4
g6432
sg5
Nsg6
Nsg7
Nsg8
Nsg9
(lp6435
g5059
ag6424
asbsS'n1004'
p6436
(i__main__
adj_list
p6437
(dp6438
g4
g6436
sg5
Nsg6
Nsg7
Nsg8
Nsg9
(lp6439
g4266
asbsS'n8'
p6440
(i__main__
adj_list
p6441
(dp6442
g4
g6440
sg5
Nsg6
Nsg7
Nsg8
Nsg9
(lp6443
g6110
ag999
ag4432
asbsS'n705'
p6444
(i__main__
adj_list
p6445
(dp6446
g4
g6444
sg5
Nsg6
Nsg7
Nsg8
Nsg9
(lp6447
g1360
ag5257
asbsS'n268'
p6448
(i__main__
adj_list
p6449
(dp6450
g4
g6448
sg5
Nsg6
Nsg7
Nsg8
Nsg9
(lp6451
g4613
aS'n295'
p6452
asbsS'n198'
p6453
(i__main__
adj_list
p6454
(dp6455
g4
g6453
sg5
Nsg6
Nsg7
Nsg8
Nsg9
(lp6456
S'n196'
p6457
ag1081
ag4446
ag1412
asbsS'n199'
p6458
(i__main__
adj_list
p6459
(dp6460
g4
g6458
sg5
Nsg6
Nsg7
Nsg8
Nsg9
(lp6461
g6457
ag1842
ag1913
ag1843
ag1914
asbsS'n9'
p6462
(i__main__
adj_list
p6463
(dp6464
g4
g6462
sg5
Nsg6
Nsg7
Nsg8
Nsg9
(lp6465
g1446
asbsS'n194'
p6466
(i__main__
adj_list
p6467
(dp6468
g4
g6466
sg5
Nsg6
Nsg7
Nsg8
Nsg9
(lp6469
S'n171'
p6470
aS'n200'
p6471
asbsS'n195'
p6472
(i__main__
adj_list
p6473
(dp6474
g4
g6472
sg5
Nsg6
Nsg7
Nsg8
Nsg9
(lp6475
g6470
ag6471
asbsS'n196'
p6476
(i__main__
adj_list
p6477
(dp6478
g4
g6476
sg5
Nsg6
Nsg7
Nsg8
Nsg9
(lp6479
g6470
asbsS'n197'
p6480
(i__main__
adj_list
p6481
(dp6482
g4
g6480
sg5
Nsg6
Nsg7
Nsg8
Nsg9
(lp6483
g6470
ag619
asbsS'n190'
p6484
(i__main__
adj_list
p6485
(dp6486
g4
g6484
sg5
Nsg6
Nsg7
Nsg8
Nsg9
(lp6487
g1805
ag1806
asbsS'n191'
p6488
(i__main__
adj_list
p6489
(dp6490
g4
g6488
sg5
Nsg6
Nsg7
Nsg8
Nsg9
(lp6491
g1805
aS'n128'
p6492
asbsS'n192'
p6493
(i__main__
adj_list
p6494
(dp6495
g4
g6493
sg5
Nsg6
Nsg7
Nsg8
Nsg9
(lp6496
g1805
ag6492
asbsS'n193'
p6497
(i__main__
adj_list
p6498
(dp6499
g4
g6497
sg5
Nsg6
Nsg7
Nsg8
Nsg9
(lp6500
g389
asbsS'n752'
p6501
(i__main__
adj_list
p6502
(dp6503
g4
g6501
sg5
Nsg6
Nsg7
Nsg8
Nsg9
(lp6504
S'n705'
p6505
asbsS'n753'
p6506
(i__main__
adj_list
p6507
(dp6508
g4
g6506
sg5
Nsg6
Nsg7
Nsg8
Nsg9
(lp6509
g6505
asbsS'n619'
p6510
(i__main__
adj_list
p6511
(dp6512
g4
g6510
sg5
Nsg6
Nsg7
Nsg8
Nsg9
(lp6513
g3269
aS'n620'
p6514
asbsS'n618'
p6515
(i__main__
adj_list
p6516
(dp6517
g4
g6515
sg5
Nsg6
Nsg7
Nsg8
Nsg9
(lp6518
g3269
ag6514
asbsS'n208'
p6519
(i__main__
adj_list
p6520
(dp6521
g4
g6519
sg5
Nsg6
Nsg7
Nsg8
Nsg9
(lp6522
g1850
asbsS'n209'
p6523
(i__main__
adj_list
p6524
(dp6525
g4
g6523
sg5
Nsg6
Nsg7
Nsg8
Nsg9
(lp6526
g1836
asbsS'n754'
p6527
(i__main__
adj_list
p6528
(dp6529
g4
g6527
sg5
Nsg6
Nsg7
Nsg8
Nsg9
(lp6530
g2428
ag4034
asbsS'n755'
p6531
(i__main__
adj_list
p6532
(dp6533
g4
g6531
sg5
Nsg6
Nsg7
Nsg8
Nsg9
(lp6534
g6143
ag4029
asbsS'n204'
p6535
(i__main__
adj_list
p6536
(dp6537
g4
g6535
sg5
Nsg6
Nsg7
Nsg8
Nsg9
(lp6538
S'n186'
p6539
aS'n221'
p6540
asbsS'n205'
p6541
(i__main__
adj_list
p6542
(dp6543
g4
g6541
sg5
Nsg6
Nsg7
Nsg8
Nsg9
(lp6544
g6539
ag6540
asbsS'n206'
p6545
(i__main__
adj_list
p6546
(dp6547
g4
g6545
sg5
Nsg6
Nsg7
Nsg8
Nsg9
(lp6548
g6539
aS'n204'
p6549
asbsS'n207'
p6550
(i__main__
adj_list
p6551
(dp6552
g4
g6550
sg5
Nsg6
Nsg7
Nsg8
Nsg9
(lp6553
g6539
ag6549
asbsS'n200'
p6554
(i__main__
adj_list
p6555
(dp6556
g4
g6554
sg5
Nsg6
Nsg7
Nsg8
Nsg9
(lp6557
S'n188'
p6558
aS'n203'
p6559
asbsS'n201'
p6560
(i__main__
adj_list
p6561
(dp6562
g4
g6560
sg5
Nsg6
Nsg7
Nsg8
Nsg9
(lp6563
g6558
ag6559
asbsS'n202'
p6564
(i__main__
adj_list
p6565
(dp6566
g4
g6564
sg5
Nsg6
Nsg7
Nsg8
Nsg9
(lp6567
g6558
aS'n216'
p6568
asbsS'n203'
p6569
(i__main__
adj_list
p6570
(dp6571
g4
g6569
sg5
Nsg6
Nsg7
Nsg8
Nsg9
(lp6572
g6558
ag6568
asbsg4203
(i__main__
adj_list
p6573
(dp6574
g4
g4203
sg5
Nsg6
Nsg7
Nsg8
Nsg9
(lp6575
sbsS'n890'
p6576
(i__main__
adj_list
p6577
(dp6578
g4
g6576
sg5
Nsg6
Nsg7
Nsg8
Nsg9
(lp6579
g847
asbsS'n865'
p6580
(i__main__
adj_list
p6581
(dp6582
g4
g6580
sg5
Nsg6
Nsg7
Nsg8
Nsg9
(lp6583
g1096
asbsS'n1198'
p6584
(i__main__
adj_list
p6585
(dp6586
g4
g6584
sg5
Nsg6
Nsg7
Nsg8
Nsg9
(lp6587
g2635
ag2636
asbsS'n1131'
p6588
(i__main__
adj_list
p6589
(dp6590
g4
g6588
sg5
Nsg6
Nsg7
Nsg8
Nsg9
(lp6591
g341
ag342
asbsS'n716'
p6592
(i__main__
adj_list
p6593
(dp6594
g4
g6592
sg5
Nsg6
Nsg7
Nsg8
Nsg9
(lp6595
g653
ag3541
asbsS'\\U0/U0/IN2R[11]'
p6596
(i__main__
adj_list
p6597
(dp6598
g4
g6596
sg5
Nsg6
Nsg7
Nsg8
Nsg9
(lp6599
g2167
ag6010
ag613
ag236
ag2405
ag2447
aS'n199'
p6600
ag177
ag2843
ag4736
ag179
ag2425
ag4737
ag3308
ag2427
ag6143
ag3310
ag4039
ag6144
ag1533
ag4062
ag857
ag1535
ag5323
ag859
ag5324
asbsS'n995'
p6601
(i__main__
adj_list
p6602
(dp6603
g4
g6601
sg5
Nsg6
Nsg7
Nsg8
Nsg9
(lp6604
g5919
ag1154
asbsS'n996'
p6605
(i__main__
adj_list
p6606
(dp6607
g4
g6605
sg5
Nsg6
Nsg7
Nsg8
Nsg9
(lp6608
g5494
asbsS'n997'
p6609
(i__main__
adj_list
p6610
(dp6611
g4
g6609
sg5
Nsg6
Nsg7
Nsg8
Nsg9
(lp6612
g5481
asbsS'n859'
p6613
(i__main__
adj_list
p6614
(dp6615
g4
g6613
sg5
Nsg6
Nsg7
Nsg8
Nsg9
(lp6616
g5742
aS'n727'
p6617
asbsS'n858'
p6618
(i__main__
adj_list
p6619
(dp6620
g4
g6618
sg5
Nsg6
Nsg7
Nsg8
Nsg9
(lp6621
g5737
asbsS'n992'
p6622
(i__main__
adj_list
p6623
(dp6624
g4
g6622
sg5
Nsg6
Nsg7
Nsg8
Nsg9
(lp6625
g2623
asbsS'n993'
p6626
(i__main__
adj_list
p6627
(dp6628
g4
g6626
sg5
Nsg6
Nsg7
Nsg8
Nsg9
(lp6629
S'n992'
p6630
ag5920
ag5921
asbsS'n770'
p6631
(i__main__
adj_list
p6632
(dp6633
g4
g6631
sg5
Nsg6
Nsg7
Nsg8
Nsg9
(lp6634
g4060
ag4991
asbsS'n854'
p6635
(i__main__
adj_list
p6636
(dp6637
g4
g6635
sg5
Nsg6
Nsg7
Nsg8
Nsg9
(lp6638
g2715
ag2716
asbsS'n857'
p6639
(i__main__
adj_list
p6640
(dp6641
g4
g6639
sg5
Nsg6
Nsg7
Nsg8
Nsg9
(lp6642
g2715
ag2783
asbsS'n643'
p6643
(i__main__
adj_list
p6644
(dp6645
g4
g6643
sg5
Nsg6
Nsg7
Nsg8
Nsg9
(lp6646
g5151
ag203
ag3857
ag2264
asbsS'n851'
p6647
(i__main__
adj_list
p6648
(dp6649
g4
g6647
sg5
Nsg6
Nsg7
Nsg8
Nsg9
(lp6650
S'n785'
p6651
aS'n852'
p6652
asbsS'n850'
p6653
(i__main__
adj_list
p6654
(dp6655
g4
g6653
sg5
Nsg6
Nsg7
Nsg8
Nsg9
(lp6656
g6651
ag6652
asbsS'n853'
p6657
(i__main__
adj_list
p6658
(dp6659
g4
g6657
sg5
Nsg6
Nsg7
Nsg8
Nsg9
(lp6660
g6651
aS'n854'
p6661
asbsS'n852'
p6662
(i__main__
adj_list
p6663
(dp6664
g4
g6662
sg5
Nsg6
Nsg7
Nsg8
Nsg9
(lp6665
g6651
ag6661
asbsS'n1057'
p6666
(i__main__
adj_list
p6667
(dp6668
g4
g6666
sg5
Nsg6
Nsg7
Nsg8
Nsg9
(lp6669
g3313
ag2942
asbsS'n1056'
p6670
(i__main__
adj_list
p6671
(dp6672
g4
g6670
sg5
Nsg6
Nsg7
Nsg8
Nsg9
(lp6673
g3516
ag1171
asbsS'n1060'
p6674
(i__main__
adj_list
p6675
(dp6676
g4
g6674
sg5
Nsg6
Nsg7
Nsg8
Nsg9
(lp6677
g821
ag4253
asbsS'n1055'
p6678
(i__main__
adj_list
p6679
(dp6680
g4
g6678
sg5
Nsg6
Nsg7
Nsg8
Nsg9
(lp6681
g2957
asbsS'n107'
p6682
(i__main__
adj_list
p6683
(dp6684
g4
g6682
sg5
Nsg6
Nsg7
Nsg8
Nsg9
(lp6685
S'n105'
p6686
ag5796
asbsS'n106'
p6687
(i__main__
adj_list
p6688
(dp6689
g4
g6687
sg5
Nsg6
Nsg7
Nsg8
Nsg9
(lp6690
S'n87'
p6691
aS'n153'
p6692
aS'n135'
p6693
asbsS'n105'
p6694
(i__main__
adj_list
p6695
(dp6696
g4
g6694
sg5
Nsg6
Nsg7
Nsg8
Nsg9
(lp6697
g6691
asbsS'n104'
p6698
(i__main__
adj_list
p6699
(dp6700
g4
g6698
sg5
Nsg6
Nsg7
Nsg8
Nsg9
(lp6701
g6691
aS'n89'
p6702
asbsS'n103'
p6703
(i__main__
adj_list
p6704
(dp6705
g4
g6703
sg5
Nsg6
Nsg7
Nsg8
Nsg9
(lp6706
g6691
ag6702
asbsS'n102'
p6707
(i__main__
adj_list
p6708
(dp6709
g4
g6707
sg5
Nsg6
Nsg7
Nsg8
Nsg9
(lp6710
S'n97'
p6711
aS'n239'
p6712
asbsS'n101'
p6713
(i__main__
adj_list
p6714
(dp6715
g4
g6713
sg5
Nsg6
Nsg7
Nsg8
Nsg9
(lp6716
g6711
ag6712
asbsS'n100'
p6717
(i__main__
adj_list
p6718
(dp6719
g4
g6717
sg5
Nsg6
Nsg7
Nsg8
Nsg9
(lp6720
g6711
ag6712
ag2668
asbsS'n1'
p6721
(i__main__
adj_list
p6722
(dp6723
g4
g6721
sg5
Nsg6
Nsg7
Nsg8
Nsg9
(lp6724
g2579
aS'n659'
p6725
ag2204
asbsS'n2'
p6726
(i__main__
adj_list
p6727
(dp6728
g4
g6726
sg5
Nsg6
Nsg7
Nsg8
Nsg9
(lp6729
g2579
ag6725
ag2204
aS'n1138'
p6730
asbsS'n3'
p6731
(i__main__
adj_list
p6732
(dp6733
g4
g6731
sg5
Nsg6
Nsg7
Nsg8
Nsg9
(lp6734
g4841
aS'n1094'
p6735
asbsS'n4'
p6736
(i__main__
adj_list
p6737
(dp6738
g4
g6736
sg5
Nsg6
Nsg7
Nsg8
Nsg9
(lp6739
g4841
ag6735
asbsS'n5'
p6740
(i__main__
adj_list
p6741
(dp6742
g4
g6740
sg5
Nsg6
Nsg7
Nsg8
Nsg9
(lp6743
g4431
asbsS'n109'
p6744
(i__main__
adj_list
p6745
(dp6746
g4
g6744
sg5
Nsg6
Nsg7
Nsg8
Nsg9
(lp6747
S'n108'
p6748
ag6692
ag6693
asbsS'n108'
p6749
(i__main__
adj_list
p6750
(dp6751
g4
g6749
sg5
Nsg6
Nsg7
Nsg8
Nsg9
(lp6752
g6686
asbs.