(dp0
S'sum[3]'
p1
(i__main__
adj_list
p2
(dp3
S'name'
p4
g1
sS'weight'
p5
I2
sS'T0'
p6
S'0'
p7
sS'T1'
p8
S'6000023'
p9
sS'toggle'
p10
S' 1'
p11
sS'edge'
p12
(lp13
sbsS'b[1]'
p14
(i__main__
adj_list
p15
(dp16
g4
g14
sg5
I28
sg6
S'4000357'
p17
sg8
S'2000000'
p18
sg10
S' 1'
p19
sg12
(lp20
S'n4'
p21
aS'n6'
p22
asbsS'a[0]'
p23
(i__main__
adj_list
p24
(dp25
g4
g23
sg5
I20
sg6
S'6000000'
p26
sg8
S'357'
p27
sg10
S' 1'
p28
sg12
(lp29
S'n5'
p30
aS'sum[0]'
p31
aS'n7'
p32
asbsS'sum[1]'
p33
(i__main__
adj_list
p34
(dp35
g4
g33
sg5
I2
sg6
S'2000212'
p36
sg8
S'3999991'
p37
sg10
S' 1'
p38
sg12
(lp39
sbsg31
(i__main__
adj_list
p40
(dp41
g4
g31
sg5
I2
sg6
S'254'
p42
sg8
S'6000039'
p43
sg10
S' 1'
p44
sg12
(lp45
sbsS'b[0]'
p46
(i__main__
adj_list
p47
(dp48
g4
g46
sg5
I20
sg6
g7
sg8
S'6000357'
p49
sg10
S' 0'
p50
sg12
(lp51
g30
ag31
ag21
asbsS'sum[2]'
p52
(i__main__
adj_list
p53
(dp54
g4
g52
sg5
I2
sg6
S'2000088'
p55
sg8
S'4000022'
p56
sg10
S' 3'
p57
sg12
(lp58
sbsS'a[3]'
p59
(i__main__
adj_list
p60
(dp61
g4
g59
sg5
I12
sg6
S'4000357'
p62
sg8
S'2000000'
p63
sg10
S' 2'
p64
sg12
(lp65
S'carry'
p66
aS'n1'
p67
asbsS'a[1]'
p68
(i__main__
adj_list
p69
(dp70
g4
g68
sg5
I28
sg6
S'4000000'
p71
sg8
S'2000357'
p72
sg10
S' 3'
p73
sg12
(lp74
g21
ag22
asbsS'b[3]'
p75
(i__main__
adj_list
p76
(dp77
g4
g75
sg5
I12
sg6
g7
sg8
S'6000357'
p78
sg10
S' 0'
p79
sg12
(lp80
g66
ag67
asbsS'b[2]'
p81
(i__main__
adj_list
p82
(dp83
g4
g81
sg5
I20
sg6
S'2000357'
p84
sg8
S'4000000'
p85
sg10
S' 1'
p86
sg12
(lp87
S'n2'
p88
aS'n3'
p89
asbsS'a[2]'
p90
(i__main__
adj_list
p91
(dp92
g4
g90
sg5
I20
sg6
S'2000000'
p93
sg8
S'4000357'
p94
sg10
S' 1'
p95
sg12
(lp96
g88
ag89
asbsg66
(i__main__
adj_list
p97
(dp98
g4
g66
sg5
I2
sg6
S'3999999'
p99
sg8
S'2000048'
p100
sg10
S' 3'
p101
sg12
(lp102
sbsS'n1'
p103
(i__main__
adj_list
p104
(dp105
g4
g103
sg5
I8
sg6
S'2000014'
p106
sg8
S'4000266'
p107
sg10
S' 2'
p108
sg12
(lp109
g1
ag66
asbsS'n2'
p110
(i__main__
adj_list
p111
(dp112
g4
g110
sg5
I8
sg6
S'4000028'
p113
sg8
S'2000106'
p114
sg10
S' 3'
p115
sg12
(lp116
g1
ag66
asbsS'n3'
p117
(i__main__
adj_list
p118
(dp119
g4
g117
sg5
I12
sg6
S'2000017'
p120
sg8
S'4000263'
p121
sg10
S' 2'
p122
sg12
(lp123
g52
ag88
asbsS'n4'
p124
(i__main__
adj_list
p125
(dp126
g4
g124
sg5
I12
sg6
S'6000046'
p127
sg8
S'175'
p128
sg10
S' 1'
p129
sg12
(lp130
g52
ag88
asbsS'n5'
p131
(i__main__
adj_list
p132
(dp133
g4
g131
sg5
I4
sg6
S'6000002'
p134
sg8
S'305'
p135
sg10
S' 1'
p136
sg12
(lp137
g33
asbsS'n6'
p138
(i__main__
adj_list
p139
(dp140
g4
g138
sg5
I16
sg6
S'1999999'
p141
sg8
S'4000281'
p142
sg10
S' 2'
p143
sg12
(lp144
g33
ag32
asbsS'n7'
p145
(i__main__
adj_list
p146
(dp147
g4
g145
sg5
I12
sg6
S'6000060'
p148
sg8
S'241'
p149
sg10
S' 1'
p150
sg12
(lp151
g21
asbs.