(dp0
S'sum[3]'
p1
(i__main__
adj_list
p2
(dp3
S'name'
p4
g1
sS'weight'
p5
NsS'T0'
p6
S'0'
p7
sS'T1'
p8
S'6000023'
p9
sS'toggle'
p10
S' 1'
p11
sS'edge'
p12
(lp13
sbsS'b[1]'
p14
(i__main__
adj_list
p15
(dp16
g4
g14
sg5
Nsg6
S'4000357'
p17
sg8
S'2000000'
p18
sg10
S' 1'
p19
sg12
(lp20
S'n4'
p21
aS'n6'
p22
asbsS'sum[1]'
p23
(i__main__
adj_list
p24
(dp25
g4
g23
sg5
Nsg6
S'2000212'
p26
sg8
S'3999991'
p27
sg10
S' 1'
p28
sg12
(lp29
sbsS'sum[0]'
p30
(i__main__
adj_list
p31
(dp32
g4
g30
sg5
Nsg6
S'254'
p33
sg8
S'6000039'
p34
sg10
S' 1'
p35
sg12
(lp36
sbsS'b[0]'
p37
(i__main__
adj_list
p38
(dp39
g4
g37
sg5
Nsg6
g7
sg8
S'6000357'
p40
sg10
S' 0'
p41
sg12
(lp42
S'n5'
p43
ag30
ag21
asbsS'sum[2]'
p44
(i__main__
adj_list
p45
(dp46
g4
g44
sg5
Nsg6
S'2000088'
p47
sg8
S'4000022'
p48
sg10
S' 3'
p49
sg12
(lp50
sbsS'a[3]'
p51
(i__main__
adj_list
p52
(dp53
g4
g51
sg5
Nsg6
S'4000357'
p54
sg8
S'2000000'
p55
sg10
S' 2'
p56
sg12
(lp57
S'carry'
p58
aS'n1'
p59
asbsS'a[0]'
p60
(i__main__
adj_list
p61
(dp62
g4
g60
sg5
Nsg6
S'6000000'
p63
sg8
S'357'
p64
sg10
S' 1'
p65
sg12
(lp66
g43
ag30
aS'n7'
p67
asbsS'a[1]'
p68
(i__main__
adj_list
p69
(dp70
g4
g68
sg5
Nsg6
S'4000000'
p71
sg8
S'2000357'
p72
sg10
S' 3'
p73
sg12
(lp74
g21
ag22
asbsS'b[3]'
p75
(i__main__
adj_list
p76
(dp77
g4
g75
sg5
Nsg6
g7
sg8
S'6000357'
p78
sg10
S' 0'
p79
sg12
(lp80
g58
ag59
asbsS'b[2]'
p81
(i__main__
adj_list
p82
(dp83
g4
g81
sg5
Nsg6
S'2000357'
p84
sg8
S'4000000'
p85
sg10
S' 1'
p86
sg12
(lp87
S'n2'
p88
aS'n3'
p89
asbsS'a[2]'
p90
(i__main__
adj_list
p91
(dp92
g4
g90
sg5
Nsg6
S'2000000'
p93
sg8
S'4000357'
p94
sg10
S' 1'
p95
sg12
(lp96
g88
ag89
asbsg58
(i__main__
adj_list
p97
(dp98
g4
g58
sg5
Nsg6
S'3999999'
p99
sg8
S'2000048'
p100
sg10
S' 3'
p101
sg12
(lp102
sbsS'n1'
p103
(i__main__
adj_list
p104
(dp105
g4
g103
sg5
Nsg6
S'2000014'
p106
sg8
S'4000266'
p107
sg10
S' 2'
p108
sg12
(lp109
g1
ag58
asbsS'n2'
p110
(i__main__
adj_list
p111
(dp112
g4
g110
sg5
Nsg6
S'4000028'
p113
sg8
S'2000106'
p114
sg10
S' 3'
p115
sg12
(lp116
g1
ag58
asbsS'n3'
p117
(i__main__
adj_list
p118
(dp119
g4
g117
sg5
Nsg6
S'2000017'
p120
sg8
S'4000263'
p121
sg10
S' 2'
p122
sg12
(lp123
g44
ag88
asbsS'n4'
p124
(i__main__
adj_list
p125
(dp126
g4
g124
sg5
Nsg6
S'6000046'
p127
sg8
S'175'
p128
sg10
S' 1'
p129
sg12
(lp130
g44
ag88
asbsS'n5'
p131
(i__main__
adj_list
p132
(dp133
g4
g131
sg5
Nsg6
S'6000002'
p134
sg8
S'305'
p135
sg10
S' 1'
p136
sg12
(lp137
g23
asbsS'n6'
p138
(i__main__
adj_list
p139
(dp140
g4
g138
sg5
Nsg6
S'1999999'
p141
sg8
S'4000281'
p142
sg10
S' 2'
p143
sg12
(lp144
g23
ag67
asbsS'n7'
p145
(i__main__
adj_list
p146
(dp147
g4
g145
sg5
Nsg6
S'6000060'
p148
sg8
S'241'
p149
sg10
S' 1'
p150
sg12
(lp151
g21
asbs.